(lp0
(lp1
(ipoint
Point
p2
(dp3
S'y'
p4
I0
sS'x'
p5
I0
sba(ipoint
Point
p6
(dp7
g4
I7
sg5
I12
sba(ipoint
Point
p8
(dp9
g4
I15
sg5
I12
sba(ipoint
Point
p10
(dp11
g4
I11
sg5
I20
sba(ipoint
Point
p12
(dp13
g4
I0
sg5
I0
sbaa(lp14
g2
a(ipoint
Point
p15
(dp16
g4
I17
sg5
I6
sba(ipoint
Point
p17
(dp18
g4
I11
sg5
I14
sba(ipoint
Point
p19
(dp20
g4
I5
sg5
I10
sbag12
aa(lp21
g2
a(ipoint
Point
p22
(dp23
g4
I5
sg5
I16
sba(ipoint
Point
p24
(dp25
g4
I15
sg5
I16
sba(ipoint
Point
p26
(dp27
g4
I15
sg5
I18
sbag12
aa(lp28
g2
a(ipoint
Point
p29
(dp30
g4
I13
sg5
I10
sba(ipoint
Point
p31
(dp32
g4
I11
sg5
I10
sba(ipoint
Point
p33
(dp34
g4
I9
sg5
I10
sbag12
aa(lp35
g2
a(ipoint
Point
p36
(dp37
g4
I9
sg5
I8
sbag31
ag29
a(ipoint
Point
p38
(dp39
g4
I7
sg5
I10
sbag6
ag12
aa(lp40
g2
ag10
a(ipoint
Point
p41
(dp42
g4
I11
sg5
I16
sbag8
ag12
aa(lp43
g2
a(ipoint
Point
p44
(dp45
g4
I11
sg5
I12
sba(ipoint
Point
p46
(dp47
g4
I13
sg5
I10
sba(ipoint
Point
p48
(dp49
g4
I17
sg5
I10
sbag12
aa(lp50
g2
ag29
a(ipoint
Point
p51
(dp52
g4
I17
sg5
I10
sba(ipoint
Point
p53
(dp54
g4
I11
sg5
I18
sba(ipoint
Point
p55
(dp56
g4
I5
sg5
I16
sbag12
aa(lp57
g2
ag22
ag41
a(ipoint
Point
p58
(dp59
g4
I11
sg5
I12
sba(ipoint
Point
p60
(dp61
g4
I15
sg5
I12
sbag12
aa(lp62
g2
ag38
a(ipoint
Point
p63
(dp64
g4
I9
sg5
I10
sbag31
ag46
a(ipoint
Point
p65
(dp66
g4
I15
sg5
I8
sba(ipoint
Point
p67
(dp68
g4
I15
sg5
I14
sba(ipoint
Point
p69
(dp70
g4
I11
sg5
I14
sba(ipoint
Point
p71
(dp72
g4
I9
sg5
I14
sba(ipoint
Point
p73
(dp74
g4
I9
sg5
I20
sbag12
aa(lp75
g2
a(ipoint
Point
p76
(dp77
g4
I1
sg5
I22
sba(ipoint
Point
p78
(dp79
g4
I3
sg5
I16
sbag19
ag12
aa(lp80
g2
ag38
ag33
ag31
ag46
a(ipoint
Point
p81
(dp82
g4
I15
sg5
I10
sbag48
a(ipoint
Point
p83
(dp84
g4
I13
sg5
I12
sbag44
ag17
a(ipoint
Point
p85
(dp86
g4
I11
sg5
I16
sbag22
a(ipoint
Point
p87
(dp88
g4
I5
sg5
I20
sba(ipoint
Point
p89
(dp90
g4
I1
sg5
I20
sba(ipoint
Point
p91
(dp92
g4
I5
sg5
I2
sbag12
aa(lp93
g2
ag36
a(ipoint
Point
p94
(dp95
g4
I11
sg5
I8
sba(ipoint
Point
p96
(dp97
g4
I13
sg5
I8
sbag33
ag17
ag71
a(ipoint
Point
p98
(dp99
g4
I7
sg5
I20
sbag12
aa(lp100
g2
ag60
ag26
ag12
aa(lp101
g2
a(ipoint
Point
p102
(dp103
g4
I5
sg5
I10
sbag12
aa(lp104
g2
ag38
ag12
aa(lp105
g2
ag22
a(ipoint
Point
p106
(dp107
g4
I9
sg5
I14
sba(ipoint
Point
p108
(dp109
g4
I7
sg5
I10
sbag29
ag65
ag12
aa(lp110
g2
ag44
a(ipoint
Point
p111
(dp112
g4
I13
sg5
I12
sba(ipoint
Point
p113
(dp114
g4
I5
sg5
I18
sbag12
aa(lp115
g2
ag36
ag31
ag12
aa(lp116
g2
a(ipoint
Point
p117
(dp118
g4
I9
sg5
I12
sbag108
ag12
aa(lp119
g2
a(ipoint
Point
p120
(dp121
g4
I3
sg5
I16
sbag55
a(ipoint
Point
p122
(dp123
g4
I7
sg5
I16
sba(ipoint
Point
p124
(dp125
g4
I7
sg5
I14
sba(ipoint
Point
p126
(dp127
g4
I5
sg5
I12
sbag19
ag81
ag96
ag12
aa(lp128
g2
a(ipoint
Point
p129
(dp130
g4
I7
sg5
I8
sbag94
a(ipoint
Point
p131
(dp132
g4
I13
sg5
I8
sba(ipoint
Point
p133
(dp134
g4
I17
sg5
I8
sbag44
ag17
ag41
ag10
ag12
aa(lp135
g2
ag38
ag17
ag26
a(ipoint
Point
p136
(dp137
g4
I17
sg5
I12
sbag65
ag12
aa(lp138
g2
a(ipoint
Point
p139
(dp140
g4
I5
sg5
I0
sbag38
a(ipoint
Point
p141
(dp142
g4
I5
sg5
I14
sbag22
ag85
ag10
ag96
ag12
aa(lp143
g2
ag117
ag12
aa(lp144
g2
ag129
ag17
ag136
ag12
aa(lp145
g2
ag129
ag96
a(ipoint
Point
p146
(dp147
g4
I7
sg5
I18
sbag12
aa(lp148
g2
a(ipoint
Point
p149
(dp150
g4
I7
sg5
I14
sbag106
ag58
ag108
ag12
aa(lp151
g2
ag15
ag94
ag31
ag6
a(ipoint
Point
p152
(dp153
g4
I7
sg5
I16
sba(ipoint
Point
p154
(dp155
g4
I1
sg5
I18
sbag12
aa(lp156
g2
ag71
ag12
aa(lp157
g2
ag87
a(ipoint
Point
p158
(dp159
g4
I5
sg5
I18
sba(ipoint
Point
p160
(dp161
g4
I9
sg5
I16
sba(ipoint
Point
p162
(dp163
g4
I7
sg5
I12
sbag19
ag96
ag65
ag12
aa(lp164
g2
a(ipoint
Point
p165
(dp166
g4
I5
sg5
I8
sbag36
a(ipoint
Point
p167
(dp168
g4
I11
sg5
I8
sbag31
ag58
ag17
ag41
ag22
ag87
ag10
ag136
ag12
aa(lp169
g2
ag44
ag12
aa(lp170
g2
a(ipoint
Point
p171
(dp172
g4
I15
sg5
I6
sbag29
a(ipoint
Point
p173
(dp174
g4
I11
sg5
I10
sbag33
ag152
ag12
aa(lp175
g2
ag141
ag126
ag12
aa(lp176
g2
ag44
a(ipoint
Point
p177
(dp178
g4
I3
sg5
I14
sbag12
aa(lp179
g2
ag38
ag17
ag10
ag12
aa(lp180
g2
ag10
ag12
aa(lp181
g2
ag131
a(ipoint
Point
p182
(dp183
g4
I15
sg5
I10
sbag83
ag12
aa(lp184
g2
ag38
ag173
ag46
ag65
ag12
aa(lp185
g2
a(ipoint
Point
p186
(dp187
g4
I13
sg5
I6
sba(ipoint
Point
p188
(dp189
g4
I11
sg5
I6
sbag12
aa(lp190
g2
ag188
ag85
ag152
ag87
ag12
aa(lp191
g2
ag31
ag33
ag108
ag12
aa(lp192
g2
ag63
ag108
a(ipoint
Point
p193
(dp194
g4
I9
sg5
I16
sbag12
aa(lp195
g2
ag165
ag129
ag96
ag17
ag12
aa(lp196
g2
ag131
ag133
ag83
ag12
aa(lp197
g2
ag165
ag129
ag36
ag167
ag31
ag29
ag51
ag60
ag58
ag117
ag71
ag85
ag193
ag152
ag22
ag12
aa(lp198
g2
ag98
a(ipoint
Point
p199
(dp200
g4
I7
sg5
I18
sba(ipoint
Point
p201
(dp202
g4
I11
sg5
I18
sba(ipoint
Point
p203
(dp204
g4
I13
sg5
I18
sbag10
ag85
a(ipoint
Point
p205
(dp206
g4
I13
sg5
I16
sba(ipoint
Point
p207
(dp208
g4
I15
sg5
I14
sbag69
ag106
ag58
ag33
ag167
ag36
a(ipoint
Point
p209
(dp210
g4
I5
sg5
I8
sbag12
aa(lp211
g2
ag102
ag12
aa(lp212
g2
ag31
ag12
aa(lp213
g2
ag85
ag167
a(ipoint
Point
p214
(dp215
g4
I9
sg5
I8
sbag12
aa(lp216
g2
ag60
ag26
ag12
aa(lp217
g2
ag117
ag58
ag31
ag12
aa(lp218
g2
ag182
ag67
a(ipoint
Point
p219
(dp220
g4
I17
sg5
I20
sbag12
aa(lp221
g2
a(ipoint
Point
p222
(dp223
g4
I15
sg5
I8
sbag48
ag19
ag12
aa(lp224
g2
ag102
ag12
aa(lp225
g2
ag149
ag12
aa(lp226
g2
ag63
ag67
ag12
aa(lp227
g2
ag22
ag41
ag58
ag46
ag81
ag167
ag214
ag12
aa(lp228
g2
ag63
ag152
ag12
aa(lp229
g2
ag36
ag129
ag12
aa(lp230
g2
ag17
ag46
ag173
ag48
ag91
ag12
aa(lp231
g2
ag83
ag162
ag214
ag12
aa(lp232
g2
ag38
ag12
aa(lp233
g2
ag60
ag12
aa(lp234
g2
ag60
ag26
ag12
aa(lp235
g2
ag165
ag94
ag29
ag26
ag12
aa(lp236
g2
ag149
a(ipoint
Point
p237
(dp238
g4
I9
sg5
I12
sbag58
ag63
ag91
a(ipoint
Point
p239
(dp240
g4
I1
sg5
I2
sbag12
aa(lp241
g2
ag36
ag167
ag173
ag38
ag17
ag10
ag87
ag158
ag12
aa(lp242
g2
ag117
ag44
ag12
aa(lp243
g2
a(ipoint
Point
p244
(dp245
g4
I9
sg5
I18
sbag201
ag219
ag167
ag214
ag12
aa(lp246
g2
ag10
ag133
ag12
aa(lp247
g2
ag38
ag12
aa(lp248
g2
ag36
ag12
aa(lp249
g2
ag71
ag91
ag12
aa(lp250
g2
ag165
ag38
ag63
ag71
ag160
ag22
ag10
ag136
ag12
aa(lp251
g2
ag73
ag219
ag69
ag12
aa(lp252
g2
ag131
ag12
aa(lp253
g2
ag31
ag46
ag83
ag12
aa(lp254
g2
ag63
ag182
ag12
aa(lp255
g2
ag182
ag67
ag12
aa(lp256
g2
ag76
a(ipoint
Point
p257
(dp258
g4
I5
sg5
I22
sbag87
ag122
ag108
ag12
aa(lp259
g2
ag38
ag17
ag12
aa(lp260
g2
ag71
ag33
ag12
aa(lp261
g2
ag48
ag17
ag106
ag12
aa(lp262
g2
ag44
ag12
aa(lp263
g2
ag87
ag69
ag12
aa(lp264
g2
ag94
ag85
ag152
ag12
aa(lp265
g2
ag131
ag46
ag12
aa(lp266
g2
ag154
ag124
ag6
ag91
ag12
aa(lp267
g2
ag188
ag29
ag12
aa(lp268
g2
ag31
ag29
ag167
ag12
aa(lp269
g2
ag44
ag12
aa(lp270
g2
ag102
ag12
aa(lp271
g2
a(ipoint
Point
p272
(dp273
g4
I19
sg5
I36
sbag24
ag67
ag19
ag12
aa(lp274
g2
a(ipoint
Point
p275
(dp276
g4
I5
sg5
I4
sbag12
aa(lp277
g2
a(ipoint
Point
p278
(dp279
g4
I7
sg5
I6
sbag12
aa(lp280
g2
ag278
ag12
aa(lp281
g2
ag102
ag108
ag31
ag29
ag22
ag12
aa(lp282
g2
ag17
ag26
ag65
a(ipoint
Point
p283
(dp284
g4
I7
sg5
I8
sba(ipoint
Point
p285
(dp286
g4
I5
sg5
I4
sbag12
aa(lp287
g2
ag38
ag33
ag29
ag83
ag17
ag12
aa(lp288
g2
ag85
ag58
ag33
ag12
aa(lp289
g2
ag38
ag71
a(ipoint
Point
p290
(dp291
g4
I15
sg5
I20
sbag12
aa(lp292
g2
ag102
ag12
aa(lp293
g2
ag102
ag12
aa(lp294
g2
ag36
ag129
ag12
aa(lp295
g2
a(ipoint
Point
p296
(dp297
g4
I5
sg5
I6
sbag182
a(ipoint
Point
p298
(dp299
g4
I19
sg5
I10
sbag67
ag12
aa(lp300
g2
ag131
a(ipoint
Point
p301
(dp302
g4
I17
sg5
I8
sbag12
aa(lp303
g2
ag60
ag26
ag12
aa(lp304
g2
ag17
ag10
ag209
ag12
aa(lp305
g2
ag36
ag12
aa(lp306
g2
ag71
ag33
ag12
aa(lp307
g2
ag38
ag12
aa(lp308
g2
ag165
ag38
ag117
ag12
aa(lp309
g2
ag131
ag83
ag12
aa(lp310
g2
ag102
ag22
ag12
aa(lp311
g2
ag146
ag122
ag12
aa(lp312
g2
ag63
ag182
ag67
ag219
ag78
ag12
aa(lp313
g2
a(ipoint
Point
p314
(dp315
g4
I3
sg5
I18
sbag199
ag201
a(ipoint
Point
p316
(dp317
g4
I13
sg5
I18
sbag24
a(ipoint
Point
p318
(dp319
g4
I13
sg5
I14
sbag8
ag111
ag29
ag102
ag283
ag209
ag12
aa(lp320
g2
ag102
ag12
aa(lp321
g2
a(ipoint
Point
p322
(dp323
g4
I9
sg5
I6
sbag29
ag146
ag12
aa(lp324
g2
ag129
ag167
ag63
ag29
ag10
ag12
aa(lp325
g2
ag38
ag12
aa(lp326
g2
ag102
a(ipoint
Point
p327
(dp328
g4
I5
sg5
I12
sbag22
ag41
ag111
ag214
ag209
ag12
aa(lp329
g2
ag73
ag12
aa(lp330
g2
ag36
ag94
ag131
ag173
ag48
ag141
ag12
aa(lp331
g2
ag38
ag31
ag162
ag12
aa(lp332
g2
ag188
ag31
ag81
ag85
ag12
aa(lp333
g2
ag141
ag8
ag46
ag12
aa(lp334
g2
ag63
ag108
ag12
aa(lp335
g2
ag102
ag10
ag12
aa(lp336
g2
ag131
ag133
ag83
ag12
aa(lp337
g2
ag44
ag83
ag85
ag12
aa(lp338
g2
ag44
ag83
ag17
ag33
ag31
ag12
aa(lp339
g2
ag165
ag129
ag36
ag94
ag63
ag51
ag133
ag10
ag158
ag12
aa(lp340
g2
ag71
ag108
ag33
ag81
ag48
ag290
ag285
ag12
aa(lp341
g2
ag31
ag17
ag91
ag12
aa(lp342
g2
ag6
ag12
aa(lp343
g2
ag36
ag152
ag53
ag98
ag12
aa(lp344
g2
ag60
ag67
ag12
aa(lp345
g2
ag71
ag152
ag12
aa(lp346
g2
ag165
ag36
ag167
ag31
ag58
ag17
ag41
ag22
ag87
ag10
ag136
ag12
aa(lp347
g2
a(ipoint
Point
p348
(dp349
g4
I1
sg5
I4
sbag275
ag278
ag12
aa(lp350
g2
ag177
ag126
ag58
ag111
ag17
ag314
a(ipoint
Point
p351
(dp352
g4
I1
sg5
I20
sbag12
aa(lp353
g2
ag98
ag10
ag201
ag41
a(ipoint
Point
p354
(dp355
g4
I19
sg5
I18
sbag12
aa(lp356
g2
ag165
ag38
ag182
ag12
aa(lp357
g2
ag44
ag111
ag76
ag12
aa(lp358
g2
ag71
ag33
ag12
aa(lp359
g2
ag38
ag12
aa(lp360
g2
ag38
ag117
ag12
aa(lp361
g2
ag15
ag48
ag63
ag12
aa(lp362
g2
ag67
ag8
ag91
ag12
aa(lp363
g2
ag17
ag12
aa(lp364
g2
ag182
ag12
aa(lp365
g2
ag38
ag12
aa(lp366
g2
ag38
ag173
ag46
ag76
ag12
aa(lp367
g2
ag67
ag8
ag91
ag12
aa(lp368
g2
ag17
ag12
aa(lp369
g2
ag67
ag8
ag162
ag91
ag12
aa(lp370
g2
ag182
ag38
ag162
ag12
aa(lp371
g2
ag67
ag8
ag162
ag91
ag12
aa(lp372
g2
ag149
ag71
ag237
ag162
ag38
ag12
aa(lp373
g2
ag193
ag237
ag108
ag12
aa(lp374
g2
ag31
ag33
ag154
ag12
aa(lp375
g2
ag141
ag98
ag46
ag48
ag65
ag12
aa(lp376
g2
ag48
ag31
ag38
ag58
ag69
ag10
ag87
ag12
aa(lp377
g2
ag244
ag26
ag33
ag12
aa(lp378
g2
ag44
ag237
ag283
ag12
aa(lp379
g2
ag44
ag10
ag12
aa(lp380
g2
ag17
ag136
ag10
ag87
ag12
aa(lp381
g2
ag60
a(ipoint
Point
p382
(dp383
g4
I17
sg5
I16
sba(ipoint
Point
p384
(dp385
g4
I15
sg5
I16
sba(ipoint
Point
p386
(dp387
g4
I1
sg5
I14
sbag12
aa(lp388
g2
ag44
ag209
ag12
aa(lp389
g2
ag31
ag83
ag19
ag12
aa(lp390
g2
ag17
ag173
ag33
ag12
aa(lp391
g2
ag63
ag108
ag12
aa(lp392
g2
ag67
ag8
ag162
ag91
ag12
aa(lp393
g2
ag6
ag58
ag17
ag149
ag152
ag85
ag10
ag207
ag96
ag94
ag36
ag12
aa(lp394
g2
ag6
ag58
ag17
ag149
ag152
ag85
ag10
ag207
ag96
ag94
ag36
ag12
aa(lp395
g2
ag67
ag8
ag162
ag91
ag12
aa(lp396
g2
ag117
ag6
ag91
ag12
aa(lp397
g2
ag10
ag91
ag12
aa(lp398
g2
ag63
ag38
ag19
ag12
aa(lp399
g2
ag171
ag38
ag98
a(ipoint
Point
p400
(dp401
g4
I3
sg5
I20
sbag12
aa(lp402
g2
ag87
ag55
ag124
ag17
ag162
ag12
aa(lp403
g2
ag85
ag26
ag46
ag31
ag167
ag214
ag12
aa(lp404
g2
ag63
ag65
ag26
ag12
aa(lp405
g2
ag327
ag44
ag17
ag173
ag65
ag10
ag87
ag158
ag12
aa(lp406
g2
ag322
ag73
ag12
aa(lp407
g2
ag177
ag22
ag237
ag111
ag33
ag12
aa(lp408
g2
ag94
ag214
ag38
ag12
aa(lp409
g2
ag400
ag87
ag126
ag58
ag83
ag81
ag46
ag133
ag12
aa(lp410
g2
ag222
ag167
ag22
ag12
aa(lp411
g2
ag83
ag85
ag108
ag102
ag12
aa(lp412
g2
ag60
ag12
aa(lp413
g2
ag26
ag8
ag12
aa(lp414
g2
ag17
ag10
ag12
aa(lp415
g2
ag85
ag12
aa(lp416
g2
ag38
ag17
ag12
aa(lp417
g2
ag83
ag58
ag167
ag12
aa(lp418
g2
ag71
ag33
ag12
aa(lp419
g2
ag117
ag152
ag26
ag285
ag12
aa(lp420
g2
ag102
ag108
ag46
ag12
aa(lp421
g2
a(ipoint
Point
p422
(dp423
g4
I1
sg5
I12
sbag6
ag117
ag290
ag12
aa(lp424
g2
ag36
ag67
ag12
aa(lp425
g2
ag15
ag48
ag12
aa(lp426
g2
ag15
ag48
ag12
aa(lp427
g2
ag71
ag33
ag12
aa(lp428
g2
ag98
ag55
ag12
aa(lp429
g2
ag83
ag67
ag12
aa(lp430
g2
ag113
ag69
ag58
ag167
ag12
aa(lp431
g2
ag44
ag162
ag19
ag12
aa(lp432
g2
ag165
ag67
ag12
aa(lp433
g2
ag129
ag214
ag73
ag12
aa(lp434
g2
ag186
ag188
ag12
aa(lp435
g2
ag44
ag111
ag209
ag12
aa(lp436
g2
ag29
ag51
ag111
ag12
aa(lp437
g2
ag422
ag237
ag193
ag65
ag12
aa(lp438
g2
ag149
ag106
ag91
ag12
aa(lp439
g2
ag38
ag17
ag12
aa(lp440
g2
ag278
ag36
ag26
ag12
aa(lp441
g2
ag129
ag167
ag31
ag58
ag17
ag26
ag113
a(ipoint
Point
p442
(dp443
g4
I5
sg5
I20
sbag12
aa(lp444
g2
ag296
ag171
a(ipoint
Point
p445
(dp446
g4
I17
sg5
I4
sbag12
aa(lp447
g2
ag53
ag12
aa(lp448
g2
ag322
ag94
ag31
ag22
ag12
aa(lp449
g2
ag113
ag69
ag58
ag167
ag12
aa(lp450
g2
ag63
ag71
ag12
aa(lp451
g2
ag31
ag12
aa(lp452
g2
ag102
ag108
ag83
ag193
ag87
ag76
ag12
aa(lp453
g2
ag85
ag10
ag46
ag48
ag285
ag12
aa(lp454
g2
ag31
ag17
ag12
aa(lp455
g2
ag44
ag111
ag17
ag53
ag12
aa(lp456
g2
ag422
ag162
ag12
aa(lp457
g2
ag94
ag131
ag83
ag17
ag237
ag12
aa(lp458
g2
ag182
ag48
ag67
ag108
ag12
aa(lp459
g2
ag171
ag182
ag17
ag53
ag199
ag19
ag12
aa(lp460
g2
ag44
ag111
ag17
ag53
ag12
aa(lp461
g2
ag38
ag12
aa(lp462
g2
ag36
ag12
aa(lp463
g2
ag38
ag96
ag12
aa(lp464
g2
ag301
ag38
ag141
ag12
aa(lp465
g2
ag36
ag12
aa(lp466
g2
ag131
ag12
aa(lp467
g2
ag38
ag17
ag26
ag290
ag65
ag91
ag12
aa(lp468
g2
ag29
ag48
ag12
aa(lp469
g2
ag63
ag117
ag8
ag12
aa(lp470
g2
ag165
ag167
ag31
ag44
ag69
ag22
ag10
ag65
ag12
aa(lp471
g2
ag10
ag111
ag12
aa(lp472
g2
ag38
ag12
aa(lp473
g2
ag165
ag131
ag12
aa(lp474
g2
ag44
ag12
aa(lp475
g2
a(ipoint
Point
p476
(dp477
g4
I13
sg5
I16
sbag24
ag207
ag46
ag12
aa(lp478
g2
ag290
ag24
ag8
ag182
ag102
ag12
aa(lp479
g2
ag94
ag12
aa(lp480
g2
ag17
ag207
ag58
ag12
aa(lp481
g2
ag26
ag8
ag12
aa(lp482
g2
ag131
ag301
ag12
aa(lp483
g2
ag29
ag44
ag162
ag12
aa(lp484
g2
ag165
ag129
ag29
ag111
ag10
ag12
aa(lp485
g2
ag113
ag201
ag69
ag167
ag12
aa(lp486
g2
ag275
ag17
ag12
aa(lp487
g2
ag63
ag83
ag8
ag193
ag12
aa(lp488
g2
ag10
ag41
ag318
ag58
ag12
aa(lp489
g2
ag131
ag65
ag48
ag83
ag177
ag22
ag12
aa(lp490
g2
ag102
ag38
ag12
aa(lp491
g2
ag6
ag58
ag17
ag167
ag12
aa(lp492
g2
ag222
ag17
ag146
ag12
aa(lp493
g2
ag6
ag58
ag17
ag12
aa(lp494
g2
ag44
ag87
ag12
aa(lp495
g2
ag6
ag58
ag17
ag12
aa(lp496
g2
ag60
ag44
ag162
ag12
aa(lp497
g2
ag296
ag129
ag36
ag167
ag31
ag154
ag12
aa(lp498
g2
ag63
ag44
ag69
ag65
ag12
aa(lp499
g2
ag129
ag182
ag10
ag12
aa(lp500
g2
ag83
ag46
ag48
ag12
aa(lp501
g2
ag94
ag83
ag12
aa(lp502
g2
ag29
ag71
ag209
ag12
aa(lp503
g2
ag38
ag29
ag17
ag12
aa(lp504
g2
ag351
ag106
ag17
ag476
ag81
ag108
ag12
aa(lp505
g2
ag38
ag12
aa(lp506
g2
ag60
ag26
ag12
aa(lp507
g2
ag131
ag17
ag177
ag314
ag12
aa(lp508
g2
ag149
ag162
ag12
aa(lp509
g2
ag87
ag113
ag126
ag136
ag65
ag12
aa(lp510
g2
ag193
ag108
ag12
aa(lp511
g2
ag129
ag71
ag22
ag12
aa(lp512
g2
ag10
ag58
ag33
ag12
aa(lp513
g2
ag422
ag12
aa(lp514
g2
ag275
ag165
ag63
ag71
ag12
aa(lp515
g2
ag38
ag31
ag46
ag51
ag10
ag12
aa(lp516
g2
ag76
ag106
ag108
ag12
aa(lp517
g2
ag63
ag283
ag12
aa(lp518
g2
ag31
ag12
aa(lp519
g2
ag38
ag46
ag17
ag12
aa(lp520
g2
ag117
ag44
ag12
aa(lp521
g2
ag146
ag10
ag285
ag12
aa(lp522
g2
ag165
ag44
ag12
aa(lp523
g2
ag71
ag214
ag12
aa(lp524
g2
a(ipoint
Point
p525
(dp526
g4
I13
sg5
I20
sbag41
ag152
ag12
aa(lp527
g2
ag29
ag182
ag83
ag152
ag12
aa(lp528
g2
ag10
ag203
ag41
ag111
ag65
ag91
ag12
aa(lp529
g2
ag322
ag188
ag48
ag12
aa(lp530
g2
ag131
ag182
ag12
aa(lp531
g2
ag71
ag33
ag12
aa(lp532
g2
ag67
ag106
ag162
ag12
aa(lp533
g2
ag152
ag214
ag301
ag12
aa(lp534
g2
ag165
ag31
ag71
ag12
aa(lp535
g2
ag149
ag12
aa(lp536
g2
ag83
ag12
aa(lp537
g2
ag44
ag17
ag113
ag12
aa(lp538
g2
ag322
ag188
ag38
ag152
ag12
aa(lp539
g2
ag29
ag81
ag83
ag12
aa(lp540
g2
ag53
ag12
aa(lp541
g2
ag29
ag108
ag12
aa(lp542
g2
ag131
ag94
ag12
aa(lp543
g2
ag85
ag162
ag12
aa(lp544
g2
ag67
ag162
ag22
ag12
aa(lp545
g2
ag171
ag53
ag12
aa(lp546
g2
ag131
ag133
ag83
ag12
aa(lp547
g2
ag36
ag167
ag222
ag133
ag31
ag58
ag69
ag85
ag10
ag158
ag12
aa(lp548
g2
ag36
ag17
ag12
aa(lp549
g2
ag38
ag193
ag41
ag12
aa(lp550
g2
ag38
ag12
aa(lp551
g2
ag149
ag214
ag167
ag283
ag12
aa(lp552
g2
ag301
ag167
ag31
ag108
ag71
ag17
ag85
ag53
ag199
ag12
aa(lp553
g2
ag31
ag12
aa(lp554
g2
ag29
ag81
ag51
ag83
ag53
ag12
aa(lp555
g2
ag36
ag131
ag65
ag133
ag48
ag29
ag31
ag17
ag10
ag442
ag12
aa(lp556
g2
ag36
ag31
ag29
ag44
ag22
ag12
aa(lp557
g2
ag44
ag46
ag167
ag12
aa(lp558
g2
ag6
ag214
ag285
ag12
aa(lp559
g2
ag63
ag12
aa(lp560
g2
ag244
ag124
ag12
aa(lp561
g2
ag177
ag314
ag12
aa(lp562
g2
a(ipoint
Point
p563
(dp564
g4
I5
sg5
I2
sbag36
ag12
aa(lp565
g2
ag31
ag17
ag12
aa(lp566
g2
ag131
ag301
ag12
aa(lp567
g2
ag117
ag244
ag24
ag12
aa(lp568
g2
ag322
ag188
ag94
ag65
ag48
ag31
ag63
ag44
ag85
ag55
ag12
aa(lp569
g2
ag94
ag131
ag133
ag48
ag83
ag22
ag12
aa(lp570
g2
ag29
ag48
ag17
ag19
ag12
aa(lp571
g2
ag87
ag8
ag65
ag12
aa(lp572
g2
ag17
ag10
ag12
aa(lp573
g2
ag129
ag71
ag12
aa(lp574
g2
ag139
ag278
ag129
ag38
ag154
ag12
aa(lp575
g2
ag322
ag94
ag96
ag173
ag12
aa(lp576
g2
ag22
ag85
ag46
ag81
ag12
aa(lp577
g2
ag26
ag41
ag8
ag65
ag129
ag12
aa(lp578
g2
ag31
ag117
ag12
aa(lp579
g2
ag117
ag83
ag177
ag12
aa(lp580
g2
ag131
ag83
ag141
ag12
aa(lp581
g2
ag6
ag8
ag12
aa(lp582
g2
ag171
ag31
ag38
ag6
ag12
aa(lp583
g2
ag17
ag58
ag237
ag31
ag108
ag12
aa(lp584
g2
ag186
ag171
ag29
ag26
ag12
aa(lp585
g2
ag182
ag46
ag19
ag126
ag12
aa(lp586
g2
ag44
ag237
ag400
ag12
aa(lp587
g2
ag171
ag15
ag17
ag12
aa(lp588
g2
ag154
ag400
ag19
ag38
ag117
ag46
ag91
ag12
aa(lp589
g2
ag131
ag12
aa(lp590
g2
ag139
ag38
ag81
ag133
ag67
ag154
ag12
aa(lp591
g2
ag171
ag301
ag48
a(ipoint
Point
p592
(dp593
g4
I13
sg5
I14
sbag12
aa(lp594
g2
ag171
ag44
ag71
ag19
ag12
aa(lp595
g2
ag322
ag188
ag222
ag31
ag85
ag12
aa(lp596
g2
ag322
ag188
ag167
ag85
ag98
ag12
aa(lp597
g2
a(ipoint
Point
p598
(dp599
g4
I1
sg5
I32
sbag207
ag46
ag12
aa(lp600
g2
ag322
ag12
aa(lp601
g2
ag188
ag17
ag85
ag136
ag12
aa(lp602
g2
ag6
ag58
ag91
ag12
aa(lp603
g2
ag44
ag111
ag19
ag12
aa(lp604
g2
ag131
ag83
ag12
aa(lp605
g2
ag193
ag12
aa(lp606
g2
ag188
ag31
ag12
aa(lp607
g2
ag38
ag31
ag87
ag400
ag12
aa(lp608
g2
ag10
ag41
ag12
aa(lp609
g2
ag188
ag31
ag12
aa(lp610
g2
ag31
ag17
ag85
ag10
ag12
aa(lp611
g2
ag244
ag26
ag33
ag12
aa(lp612
g2
ag193
ag46
ag12
aa(lp613
g2
ag6
ag193
ag46
ag12
aa(lp614
g2
ag36
ag12
aa(lp615
g2
ag149
ag12
aa(lp616
g2
ag26
ag290
ag19
ag12
aa(lp617
g2
ag10
ag290
ag167
ag285
ag12
aa(lp618
g2
ag94
ag214
ag12
aa(lp619
g2
ag6
ag44
ag111
ag81
ag29
ag65
ag67
ag26
ag87
ag12
aa(lp620
g2
ag154
ag160
ag237
ag108
ag91
ag12
aa(lp621
g2
ag182
ag6
ag12
aa(lp622
g2
ag26
ag162
ag19
ag91
ag12
aa(lp623
g2
ag222
ag131
ag129
ag12
aa(lp624
g2
ag131
ag222
ag29
ag31
ag33
ag38
ag162
ag17
ag318
ag41
ag314
ag12
aa(lp625
g2
ag26
ag237
ag6
ag12
aa(lp626
g2
ag31
ag12
aa(lp627
g2
ag31
ag167
ag12
aa(lp628
g2
ag102
ag38
ag31
ag46
ag22
ag87
ag76
ag12
aa(lp629
g2
ag31
ag46
ag83
ag91
ag12
aa(lp630
g2
ag83
ag44
ag12
aa(lp631
g2
ag44
ag83
ag46
ag173
ag12
aa(lp632
g2
ag60
ag207
ag26
ag219
ag12
aa(lp633
g2
ag31
ag46
ag83
ag17
ag106
ag113
ag76
ag12
aa(lp634
g2
ag17
ag162
ag91
ag12
aa(lp635
g2
ag60
ag207
ag26
ag219
ag12
aa(lp636
g2
ag165
ag38
ag31
ag44
ag26
a(ipoint
Point
p637
(dp638
g4
I1
sg5
I16
sbag12
aa(lp639
g2
ag29
ag48
ag592
ag476
ag203
ag98
ag12
aa(lp640
g2
ag63
ag31
ag96
ag65
ag60
ag58
ag69
ag149
ag122
ag53
ag12
aa(lp641
g2
ag63
ag31
ag96
ag65
ag60
ag58
ag69
ag149
ag122
ag53
ag12
aa(lp642
g2
ag53
ag10
ag69
ag58
ag167
ag12
aa(lp643
g2
ag17
ag318
ag83
ag173
ag12
aa(lp644
g2
ag171
ag301
ag48
ag592
ag12
aa(lp645
g2
ag177
a(ipoint
Point
p646
(dp647
g4
I5
sg5
I14
sbag55
ag126
ag108
ag44
ag83
ag12
aa(lp648
g2
ag63
ag108
ag12
aa(lp649
g2
ag38
ag31
ag81
ag48
ag17
ag124
ag177
ag314
ag12
aa(lp650
g2
ag87
ag41
ag111
ag58
ag81
ag222
ag129
ag12
aa(lp651
g2
ag17
ag58
ag237
ag12
aa(lp652
g2
ag188
ag44
ag85
ag12
aa(lp653
g2
ag44
ag12
aa(lp654
g2
ag117
ag33
ag12
aa(lp655
g2
ag60
ag26
ag12
aa(lp656
g2
ag71
ag17
ag592
ag167
ag12
aa(lp657
g2
ag422
ag67
ag26
ag272
ag12
aa(lp658
g2
ag6
ag17
ag12
aa(lp659
g2
ag31
ag81
ag22
ag12
aa(lp660
g2
ag17
ag106
ag152
ag22
ag10
ag58
ag31
ag12
aa(lp661
g2
ag384
ag8
ag12
aa(lp662
g2
ag31
ag12
aa(lp663
g2
ag10
ag203
ag19
ag12
aa(lp664
g2
ag290
ag8
ag12
aa(lp665
g2
ag29
ag63
ag152
ag12
aa(lp666
g2
ag76
ag257
ag158
ag126
ag83
ag12
aa(lp667
g2
ag31
ag48
ag65
ag12
aa(lp668
g2
ag26
ag8
ag12
aa(lp669
g2
ag222
ag12
aa(lp670
g2
ag36
ag94
ag65
ag31
ag85
ag12
aa(lp671
g2
ag87
ag162
ag58
ag111
ag8
ag136
ag167
ag12
aa(lp672
g2
ag71
ag12
aa(lp673
g2
ag44
ag12
aa(lp674
g2
ag44
ag12
aa(lp675
g2
ag102
ag33
ag12
aa(lp676
g2
ag94
ag44
ag69
ag12
aa(lp677
g2
ag31
ag46
ag81
ag17
ag12
aa(lp678
g2
ag31
ag285
ag12
aa(lp679
g2
ag83
ag108
ag19
ag12
aa(lp680
g2
ag60
ag26
ag12
aa(lp681
g2
ag222
ag131
ag17
ag71
ag12
aa(lp682
g2
ag113
ag201
ag41
ag17
ag58
ag162
ag167
ag12
aa(lp683
g2
ag53
ag46
ag12
aa(lp684
g2
ag53
ag41
ag12
aa(lp685
g2
ag102
ag12
aa(lp686
g2
ag29
ag85
ag152
ag12
aa(lp687
g2
ag44
ag26
ag12
aa(lp688
g2
ag131
ag133
ag83
ag58
ag237
ag12
aa(lp689
g2
ag15
ag12
aa(lp690
g2
ag67
ag8
ag111
ag12
aa(lp691
g2
ag26
ag8
ag12
aa(lp692
g2
ag83
ag237
ag126
ag12
aa(lp693
g2
ag146
ag162
ag12
aa(lp694
g2
ag48
ag65
ag12
aa(lp695
g2
ag63
ag108
ag12
aa(lp696
g2
ag31
ag85
ag12
aa(lp697
g2
ag22
ag126
ag111
ag12
aa(lp698
g2
ag131
ag85
ag122
ag400
ag12
aa(lp699
g2
ag102
ag63
ag17
ag10
ag136
ag12
aa(lp700
g2
ag129
ag301
ag87
ag12
aa(lp701
g2
ag31
ag12
aa(lp702
g2
ag22
ag106
ag69
ag318
ag46
ag38
ag12
aa(lp703
g2
ag131
ag85
ag122
ag400
ag12
aa(lp704
g2
ag71
ag17
ag173
ag10
ag158
ag12
aa(lp705
g2
ag182
ag48
ag65
ag12
aa(lp706
g2
ag117
ag83
ag17
ag81
ag12
aa(lp707
g2
ag182
ag108
ag102
ag209
ag12
aa(lp708
g2
ag149
ag193
ag41
a(ipoint
Point
p709
(dp710
g4
I5
sg5
I6
sbag12
aa(lp711
g2
ag36
ag94
ag12
aa(lp712
g2
ag129
ag17
ag10
ag12
aa(lp713
g2
ag400
ag87
ag106
ag12
aa(lp714
g2
ag154
ag244
ag33
ag12
aa(lp715
g2
ag85
ag106
ag58
ag111
ag167
ag12
aa(lp716
g2
ag60
ag71
ag12
aa(lp717
g2
ag186
ag12
aa(lp718
g2
ag60
ag26
ag12
aa(lp719
g2
ag17
ag162
ag12
aa(lp720
g2
ag165
ag129
ag108
ag44
ag136
ag65
ag10
ag87
ag55
ag78
ag12
aa(lp721
g2
ag44
ag12
aa(lp722
g2
ag165
ag31
ag58
ag152
ag12
aa(lp723
g2
ag17
ag207
ag60
ag26
ag10
ag87
ag158
ag76
ag12
aa(lp724
g2
ag63
ag38
ag177
ag12
aa(lp725
g2
ag38
ag63
ag51
ag12
aa(lp726
g2
ag117
ag17
ag12
aa(lp727
g2
ag129
ag36
ag12
aa(lp728
g2
ag31
ag29
ag12
aa(lp729
g2
ag85
ag162
ag19
ag12
aa(lp730
g2
ag31
ag17
a(ipoint
Point
p731
(dp732
g4
I1
sg5
I4
sbag12
aa(lp733
g2
ag222
ag85
ag731
ag12
aa(lp734
g2
ag44
ag12
aa(lp735
g2
ag117
ag58
ag51
ag12
aa(lp736
g2
ag60
ag46
ag12
aa(lp737
g2
ag113
ag162
ag58
ag167
ag91
ag12
aa(lp738
g2
ag129
ag182
ag12
aa(lp739
g2
ag141
ag12
aa(lp740
g2
ag275
ag63
ag46
ag71
ag12
aa(lp741
g2
ag44
ag12
aa(lp742
g2
ag400
ag290
ag162
ag38
ag12
aa(lp743
g2
ag131
ag73
ag158
ag12
aa(lp744
g2
ag38
ag31
ag83
ag17
ag65
ag12
aa(lp745
g2
ag131
ag152
ag12
aa(lp746
g2
ag38
ag33
ag31
ag117
ag17
ag152
ag22
ag10
a(ipoint
Point
p747
(dp748
g4
I19
sg5
I12
sbag12
aa(lp749
g2
ag322
ag301
ag12
aa(lp750
g2
ag44
ag83
ag69
ag85
ag19
ag12
aa(lp751
g2
ag31
ag83
ag136
ag17
ag12
aa(lp752
g2
ag22
ag69
ag318
ag58
ag12
aa(lp753
g2
ag71
ag162
ag91
ag12
aa(lp754
g2
ag63
ag71
ag219
ag12
aa(lp755
g2
ag94
ag131
ag117
ag12
aa(lp756
g2
ag38
ag31
ag12
aa(lp757
g2
ag44
ag51
ag12
aa(lp758
g2
ag22
ag87
ag69
ag19
ag12
aa(lp759
g2
ag182
ag51
ag290
ag12
aa(lp760
g2
ag149
ag12
aa(lp761
g2
ag22
ag152
ag46
ag12
aa(lp762
g2
ag98
ag10
ag111
ag162
ag19
ag12
aa(lp763
g2
ag38
ag31
ag48
ag10
ag12
aa(lp764
g2
ag131
ag141
ag12
aa(lp765
g2
ag222
ag182
ag476
ag87
ag12
aa(lp766
g2
ag83
ag152
ag98
ag731
ag12
aa(lp767
g2
ag36
ag85
ag12
aa(lp768
g2
ag38
ag31
ag29
ag10
ag12
aa(lp769
g2
ag38
ag31
ag85
ag12
aa(lp770
g2
ag177
ag17
ag85
ag111
ag173
ag33
ag167
ag709
ag12
aa(lp771
g2
ag31
ag108
ag12
aa(lp772
g2
ag36
ag31
ag12
aa(lp773
g2
ag152
ag53
ag58
ag237
ag31
ag94
ag12
aa(lp774
g2
ag17
ag46
ag51
ag12
aa(lp775
g2
ag120
ag173
ag182
ag65
ag12
aa(lp776
g2
ag290
a(ipoint
Point
p777
(dp778
g4
I9
sg5
I18
sbag158
ag193
ag237
ag214
ag12
aa(lp779
g2
ag17
ag12
aa(lp780
g2
ag275
ag12
aa(lp781
g2
ag186
ag12
aa(lp782
g2
ag38
ag12
aa(lp783
g2
ag102
ag31
ag48
ag12
aa(lp784
g2
ag22
ag41
ag10
ag58
ag133
ag12
aa(lp785
g2
ag165
ag167
ag29
ag152
ag87
ag12
aa(lp786
g2
ag87
ag108
ag29
ag12
aa(lp787
g2
ag165
ag36
ag102
ag177
ag12
aa(lp788
g2
ag38
ag12
aa(lp789
g2
ag94
ag131
ag17
ag12
aa(lp790
g2
ag63
ag182
ag12
aa(lp791
g2
ag131
ag133
ag29
ag141
ag12
aa(lp792
g2
ag117
ag173
ag167
ag12
aa(lp793
g2
ag129
ag63
ag26
ag400
ag12
aa(lp794
g2
ag22
ag318
ag8
ag111
ag12
aa(lp795
g2
ag67
ag8
ag65
ag12
aa(lp796
g2
ag129
ag131
ag222
ag182
ag731
ag12
aa(lp797
g2
ag322
ag186
ag22
ag12
aa(lp798
g2
ag322
ag186
ag22
ag12
aa(lp799
g2
ag17
ag12
aa(lp800
g2
ag188
ag131
ag31
ag117
ag12
aa(lp801
g2
ag102
ag48
ag10
ag12
aa(lp802
g2
ag31
ag29
ag108
ag12
aa(lp803
g2
ag71
ag17
ag33
ag108
ag12
aa(lp804
g2
ag102
ag12
aa(lp805
g2
ag38
ag31
ag83
ag26
ag113
ag12
aa(lp806
g2
ag36
ag31
ag65
ag17
ag12
aa(lp807
g2
ag117
ag71
ag12
aa(lp808
g2
ag38
ag117
ag149
ag8
ag12
aa(lp809
g2
ag17
ag96
ag12
aa(lp810
g2
ag17
ag58
ag162
ag12
aa(lp811
g2
ag301
ag65
ag29
ag108
ag12
aa(lp812
g2
ag36
ag96
ag85
ag53
a(ipoint
Point
p813
(dp814
g4
I11
sg5
I20
sbag12
aa(lp815
g2
ag129
ag63
ag46
ag17
ag12
aa(lp816
g2
ag22
ag41
ag108
ag12
aa(lp817
g2
ag171
a(ipoint
Point
p818
(dp819
g4
I17
sg5
I12
sbag382
ag26
ag12
aa(lp820
g2
ag193
ag41
ag24
ag133
ag36
ag129
ag102
ag12
aa(lp821
g2
ag400
ag126
ag162
ag19
ag38
ag91
ag12
aa(lp822
g2
ag71
ag33
ag12
aa(lp823
g2
ag36
ag167
ag29
ag17
ag476
ag41
ag201
ag12
aa(lp824
g2
ag63
ag149
ag71
ag244
ag12
aa(lp825
g2
ag29
ag17
ag108
ag12
aa(lp826
g2
ag301
ag65
ag29
ag108
ag12
aa(lp827
g2
ag129
ag182
ag85
ag12
aa(lp828
g2
ag117
ag58
ag193
ag108
ag12
aa(lp829
g2
ag29
ag384
ag78
ag12
aa(lp830
g2
ag15
ag222
ag167
ag214
ag31
ag29
ag17
ag106
ag85
ag53
ag813
ag158
ag12
aa(lp831
g2
ag63
ag237
ag83
ag8
ag12
aa(lp832
g2
ag322
ag188
ag12
aa(lp833
g2
ag17
ag19
ag12
aa(lp834
g2
ag117
ag65
ag26
a(ipoint
Point
p835
(dp836
g4
I15
sg5
I20
sbag12
aa(lp837
g2
ag6
ag152
ag41
ag12
aa(lp838
g2
ag38
ag12
aa(lp839
g2
ag85
ag10
ag709
ag12
aa(lp840
g2
ag44
ag111
ag8
ag12
aa(lp841
g2
ag171
ag44
ag69
ag87
ag12
aa(lp842
g2
ag38
ag81
ag85
ag12
aa(lp843
g2
ag63
ag182
ag12
aa(lp844
g2
ag316
ag26
ag290
ag8
ag12
aa(lp845
g2
ag348
ag278
ag12
aa(lp846
g2
ag87
ag41
ag69
ag44
ag173
ag214
ag94
ag209
ag12
aa(lp847
g2
ag301
ag131
ag31
ag33
ag108
ag17
ag22
ag12
aa(lp848
g2
ag117
ag108
ag285
ag12
aa(lp849
g2
ag171
ag73
ag442
ag12
aa(lp850
g2
ag53
ag41
ag111
ag12
aa(lp851
g2
ag63
ag31
ag46
ag83
ag136
ag48
ag301
ag12
aa(lp852
g2
ag36
ag94
ag29
ag12
aa(lp853
g2
ag278
ag322
ag36
ag33
ag193
ag12
aa(lp854
g2
ag129
ag36
ag12
aa(lp855
g2
ag131
ag12
aa(lp856
g2
ag129
ag36
ag33
ag71
ag73
ag12
aa(lp857
g2
ag38
ag31
ag6
ag12
aa(lp858
g2
ag36
ag94
ag31
ag17
ag10
ag12
aa(lp859
g2
ag117
ag193
ag136
ag65
ag12
aa(lp860
g2
ag177
ag646
ag106
ag22
ag12
aa(lp861
g2
ag31
ag17
ag12
aa(lp862
g2
ag131
ag182
ag12
aa(lp863
g2
ag322
ag188
ag94
ag173
ag12
aa(lp864
g2
ag129
ag165
ag177
ag67
ag12
aa(lp865
g2
ag10
ag12
aa(lp866
g2
ag322
ag186
ag171
ag222
ag60
ag422
ag12
aa(lp867
g2
ag31
ag167
ag214
ag12
aa(lp868
g2
ag31
ag85
ag12
aa(lp869
g2
ag149
ag193
ag709
ag12
aa(lp870
g2
ag182
ag63
ag108
ag731
ag12
aa(lp871
g2
ag73
ag12
aa(lp872
g2
ag60
ag46
ag12
aa(lp873
g2
ag22
ag41
ag17
ag106
ag58
ag81
ag167
ag12
aa(lp874
g2
ag113
ag199
ag160
ag41
ag108
ag65
ag12
aa(lp875
g2
ag131
ag709
ag12
aa(lp876
g2
ag71
ag12
aa(lp877
g2
ag149
ag193
ag709
ag12
aa(lp878
g2
ag36
ag117
ag51
ag12
aa(lp879
g2
ag26
ag219
ag8
ag12
aa(lp880
g2
ag38
ag6
ag111
ag136
ag316
ag12
aa(lp881
g2
ag31
ag33
ag12
aa(lp882
g2
ag322
ag188
ag12
aa(lp883
g2
ag322
ag188
ag31
ag12
aa(lp884
g2
ag141
ag12
aa(lp885
g2
ag83
ag17
ag124
ag12
aa(lp886
g2
ag31
ag17
ag12
aa(lp887
g2
ag87
ag41
ag17
ag44
ag12
aa(lp888
g2
ag26
ag8
ag12
aa(lp889
g2
ag149
ag146
ag73
ag10
ag89
ag12
aa(lp890
g2
ag38
ag12
aa(lp891
g2
ag38
ag12
aa(lp892
g2
ag38
ag12
aa(lp893
g2
ag38
ag12
aa(lp894
g2
ag131
ag182
ag63
ag12
aa(lp895
g2
ag102
ag38
ag63
ag31
ag48
ag162
ag149
ag146
ag12
aa(lp896
g2
ag422
ag117
ag71
ag244
ag12
aa(lp897
g2
ag222
ag63
ag209
ag12
aa(lp898
g2
ag244
ag73
ag12
aa(lp899
g2
ag38
ag12
aa(lp900
g2
ag149
ag162
ag38
ag12
aa(lp901
g2
ag38
ag17
ag12
aa(lp902
g2
ag36
ag31
ag12
aa(lp903
g2
ag301
ag29
ag38
ag12
aa(lp904
g2
ag38
ag63
ag46
ag10
ag12
aa(lp905
g2
ag165
ag94
ag29
ag44
ag83
ag141
ag12
aa(lp906
g2
ag94
ag98
ag12
aa(lp907
g2
ag94
ag214
ag12
aa(lp908
g2
ag102
ag12
aa(lp909
g2
ag351
ag19
ag38
ag31
ag29
ag81
ag51
ag111
ag58
ag69
ag476
ag94
ag12
aa(lp910
g2
ag165
ag283
ag167
ag182
ag12
aa(lp911
g2
ag131
ag182
ag51
ag29
ag12
aa(lp912
g2
ag129
ag65
ag10
ag87
ag12
aa(lp913
g2
ag17
ag44
ag33
ag12
aa(lp914
g2
ag275
ag182
ag26
ag12
aa(lp915
g2
ag348
ag149
ag146
ag12
aa(lp916
g2
ag38
ag31
ag12
aa(lp917
g2
ag87
ag111
ag12
aa(lp918
g2
ag129
ag6
ag58
ag12
aa(lp919
g2
ag36
ag33
ag117
ag136
ag22
ag87
ag12
aa(lp920
g2
ag422
ag108
ag12
aa(lp921
g2
ag102
ag48
ag60
ag382
ag12
aa(lp922
g2
ag182
ag63
ag6
ag71
ag17
ag193
ag98
ag12
aa(lp923
g2
ag182
ag63
ag6
ag71
ag17
ag193
ag98
ag12
aa(lp924
g2
ag6
ag237
ag152
ag78
ag26
ag51
ag12
aa(lp925
g2
ag188
ag131
ag44
ag162
ag126
ag124
ag22
ag152
ag87
ag400
ag12
aa(lp926
g2
ag563
ag296
ag129
ag38
ag400
ag12
aa(lp927
g2
ag102
ag29
ag182
ag113
ag12
aa(lp928
g2
ag31
ag29
ag65
ag26
ag12
aa(lp929
g2
ag113
ag146
ag777
ag106
ag162
ag58
ag51
ag12
aa(lp930
g2
ag10
ag318
ag81
ag222
ag12
aa(lp931
g2
ag129
ag63
ag237
ag177
ag67
ag65
ag12
aa(lp932
g2
ag314
ag55
ag283
ag133
ag12
aa(lp933
g2
ag63
ag108
ag71
ag17
ag26
ag73
ag12
aa(lp934
g2
ag31
ag44
ag12
aa(lp935
g2
ag26
ag41
ag12
aa(lp936
g2
ag193
ag12
aa(lp937
g2
ag129
ag131
ag222
ag182
ag8
ag26
ag835
ag731
ag12
aa(lp938
g2
ag38
ag17
ag12
aa(lp939
g2
ag63
ag71
ag8
ag285
ag12
aa(lp940
g2
ag193
ag237
ag12
aa(lp941
g2
ag6
ag58
ag83
ag46
ag81
ag222
ag214
ag129
ag17
ag41
ag73
ag12
aa(lp942
g2
ag10
ag41
ag173
ag12
aa(lp943
g2
ag44
ag111
ag173
ag12
aa(lp944
g2
ag87
ag835
ag12
aa(lp945
g2
ag6
ag44
ag46
ag173
ag167
ag17
ag207
ag219
ag290
ag10
ag73
ag87
ag113
ag76
ag12
aa(lp946
g2
ag384
ag8
ag162
ag12
aa(lp947
g2
ag131
ag94
ag12
aa(lp948
g2
ag146
ag167
ag12
aa(lp949
g2
ag63
ag6
ag400
ag598
ag12
aa(lp950
g2
ag83
ag71
ag209
ag12
aa(lp951
g2
ag131
ag60
ag12
aa(lp952
g2
ag244
ag53
ag160
ag106
ag12
aa(lp953
g2
ag36
ag167
ag96
ag222
ag48
ag29
ag173
ag111
ag17
ag476
ag152
ag98
ag10
ag386
ag12
aa(lp954
g2
ag296
ag322
ag171
ag48
ag182
ag290
ag777
ag12
aa(lp955
g2
ag129
ag131
ag222
ag182
ag8
ag26
ag835
ag731
ag12
aa(lp956
g2
ag36
ag94
ag29
ag111
ag422
ag12
aa(lp957
g2
ag165
ag129
ag71
ag73
ag290
ag136
ag133
ag12
aa(lp958
g2
ag314
ag158
ag8
ag12
aa(lp959
g2
ag63
ag133
ag12
aa(lp960
g2
ag94
ag31
ag17
ag10
ag12
aa(lp961
g2
ag31
ag167
ag12
aa(lp962
g2
ag31
ag17
ag12
aa(lp963
g2
ag31
ag94
ag214
ag12
aa(lp964
g2
ag36
ag31
ag65
ag12
aa(lp965
g2
ag149
ag146
ag73
ag10
ag89
ag12
aa(lp966
g2
ag400
ag158
ag209
ag12
aa(lp967
g2
ag85
ag384
ag207
ag290
ag12
aa(lp968
g2
ag44
ag111
ag12
aa(lp969
g2
ag44
ag12
aa(lp970
g2
ag36
ag31
ag12
aa(lp971
g2
ag384
ag41
ag12
aa(lp972
g2
ag17
ag58
ag167
ag12
aa(lp973
g2
ag188
ag31
ag44
ag22
ag12
aa(lp974
g2
ag36
ag31
ag81
ag12
aa(lp975
g2
ag10
ag160
ag12
aa(lp976
g2
ag129
ag63
ag167
ag60
ag17
ag71
ag22
ag78
ag314
ag12
aa(lp977
g2
ag38
ag10
ag12
aa(lp978
g2
ag63
ag44
ag8
ag10
ag12
aa(lp979
g2
ag222
ag36
ag38
ag177
ag12
aa(lp980
g2
ag193
ag167
ag65
ag12
aa(lp981
g2
ag22
ag152
ag290
ag81
ag12
aa(lp982
g2
ag6
ag44
ag98
ag12
aa(lp983
g2
ag38
ag31
ag94
ag17
ag91
ag12
aa(lp984
g2
ag17
ag12
aa(lp985
g2
ag85
ag58
ag167
ag12
aa(lp986
g2
ag44
ag12
aa(lp987
g2
ag146
ag12
aa(lp988
g2
ag94
ag85
ag12
aa(lp989
g2
ag290
ag8
ag12
aa(lp990
g2
ag244
ag160
ag237
ag108
ag12
aa(lp991
g2
ag63
ag83
ag12
aa(lp992
g2
ag60
ag26
ag12
aa(lp993
g2
ag129
ag63
ag182
ag12
aa(lp994
g2
ag44
ag113
ag12
aa(lp995
g2
ag71
ag12
aa(lp996
g2
ag17
ag58
ag81
ag167
ag12
aa(lp997
g2
ag87
ag318
ag46
ag12
aa(lp998
g2
ag154
ag111
ag60
ag46
ag12
aa(lp999
g2
ag38
ag31
ag81
ag17
ag12
aa(lp1000
g2
ag131
ag141
ag12
aa(lp1001
g2
ag290
ag8
ag12
aa(lp1002
g2
ag182
ag12
aa(lp1003
g2
ag71
ag17
ag8
ag12
aa(lp1004
g2
ag384
ag8
ag12
aa(lp1005
g2
ag182
ag38
ag12
aa(lp1006
g2
ag26
ag290
ag207
ag8
ag117
ag12
aa(lp1007
g2
ag36
ag94
ag31
ag17
ag85
ag10
ag12
aa(lp1008
g2
ag6
ag283
ag65
ag26
ag87
ag12
aa(lp1009
g2
ag17
ag12
aa(lp1010
g2
ag17
ag152
ag209
ag12
aa(lp1011
g2
ag36
ag167
ag31
ag58
ag69
ag53
ag10
ag158
ag12
aa(lp1012
g2
ag83
ag44
ag113
ag12
aa(lp1013
g2
ag63
ag71
ag12
aa(lp1014
g2
ag71
ag12
aa(lp1015
g2
ag83
ag8
ag81
ag26
ag290
ag160
ag12
aa(lp1016
g2
ag48
ag17
ag12
aa(lp1017
g2
ag129
ag63
ag31
ag182
ag44
ag6
ag12
aa(lp1018
g2
ag193
ag318
ag46
ag173
ag131
ag219
ag87
ag76
ag12
aa(lp1019
g2
ag290
ag201
ag58
ag12
aa(lp1020
g2
ag149
ag167
ag301
ag12
aa(lp1021
g2
ag182
ag445
ag12
aa(lp1022
g2
ag94
ag29
ag133
ag12
aa(lp1023
g2
ag36
ag31
ag12
aa(lp1024
g2
ag38
ag12
aa(lp1025
g2
ag322
ag63
ag731
ag12
aa(lp1026
g2
ag31
ag17
ag65
ag12
aa(lp1027
g2
ag38
ag63
ag133
ag12
aa(lp1028
g2
ag38
ag12
aa(lp1029
g2
ag44
ag108
ag12
aa(lp1030
g2
ag44
ag111
ag12
aa(lp1031
g2
ag131
ag36
ag38
ag149
ag12
aa(lp1032
g2
ag36
ag167
ag222
ag12
aa(lp1033
g2
ag26
ag237
ag108
ag141
ag12
aa(lp1034
g2
ag129
ag36
ag94
ag131
ag173
ag63
ag108
ag22
ag193
ag41
ag205
ag316
ag87
ag12
aa(lp1035
g2
ag22
ag41
ag81
ag108
ag12
aa(lp1036
g2
ag71
ag33
ag12
aa(lp1037
g2
ag44
ag111
ag17
ag10
ag19
ag12
aa(lp1038
g2
ag76
a(ipoint
Point
p1039
(dp1040
g4
I3
sg5
I20
sbag10
ag111
ag8
ag162
ag12
aa(lp1041
g2
ag36
ag12
aa(lp1042
g2
ag26
ag777
ag98
ag87
ag12
aa(lp1043
g2
ag60
ag12
aa(lp1044
g2
ag60
ag12
aa(lp1045
g2
ag60
ag12
aa(lp1046
g2
ag60
ag12
aa(lp1047
g2
ag239
ag322
ag63
ag12
aa(lp1048
g2
ag87
ag108
ag31
ag12
aa(lp1049
g2
ag29
ag182
ag67
ag71
ag108
ag12
aa(lp1050
g2
ag60
ag12
aa(lp1051
g2
ag60
ag26
ag12
aa(lp1052
g2
ag165
ag17
ag12
aa(lp1053
g2
ag44
ag136
ag113
ag442
ag12
aa(lp1054
g2
ag63
ag17
ag8
ag12
aa(lp1055
g2
ag94
ag65
ag301
ag17
ag85
ag12
aa(lp1056
g2
ag165
ag129
ag48
ag10
ag12
aa(lp1057
g2
ag94
ag31
ag17
ag85
ag10
ag12
aa(lp1058
g2
ag36
ag167
ag222
ag133
ag67
ag12
aa(lp1059
g2
ag165
ag129
ag102
ag38
ag126
ag44
ag133
ag12
aa(lp1060
g2
ag38
ag12
aa(lp1061
g2
ag131
ag83
ag12
aa(lp1062
g2
ag85
ag108
ag209
ag12
aa(lp1063
g2
ag48
ag63
ag71
ag141
ag12
aa(lp1064
g2
ag38
ag19
ag12
aa(lp1065
g2
ag6
ag111
ag17
ag133
ag12
aa(lp1066
g2
ag83
ag46
ag173
ag12
aa(lp1067
g2
ag67
ag237
ag162
ag12
aa(lp1068
g2
ag38
ag12
aa(lp1069
g2
ag244
ag199
ag237
ag12
aa(lp1070
g2
ag38
ag12
aa(lp1071
g2
ag188
ag186
ag31
ag44
ag12
aa(lp1072
g2
ag165
ag94
ag222
ag117
ag422
ag12
aa(lp1073
g2
ag44
ag12
aa(lp1074
g2
ag63
ag17
ag152
ag12
aa(lp1075
g2
ag83
ag85
ag33
ag12
aa(lp1076
g2
ag117
ag12
aa(lp1077
g2
ag188
ag31
ag113
ag12
aa(lp1078
g2
ag60
ag237
ag709
ag12
aa(lp1079
g2
ag94
ag12
aa(lp1080
g2
ag165
ag36
ag12
aa(lp1081
g2
ag38
ag44
ag83
ag17
ag10
ag12
aa(lp1082
g2
ag129
ag167
ag182
ag44
ag71
ag162
ag12
aa(lp1083
g2
ag146
ag41
ag126
ag12
aa(lp1084
g2
ag131
ag83
ag12
aa(lp1085
g2
ag83
ag384
ag12
aa(lp1086
g2
ag131
ag301
ag12
aa(lp1087
g2
ag131
ag31
ag709
ag12
aa(lp1088
g2
ag10
ag41
ag12
aa(lp1089
g2
ag182
ag12
aa(lp1090
g2
ag44
ag111
ag12
aa(lp1091
g2
ag117
ag12
aa(lp1092
g2
ag188
ag31
ag29
ag48
ag12
aa(lp1093
g2
ag188
ag31
ag85
ag10
ag12
aa(lp1094
g2
ag165
ag38
ag63
ag44
ag136
ag12
aa(lp1095
g2
ag17
ag44
ag167
ag12
aa(lp1096
g2
ag182
ag67
ag24
ag272
ag12
aa(lp1097
g2
ag131
ag71
ag193
ag219
ag12
aa(lp1098
g2
ag188
ag31
ag85
ag12
aa(lp1099
g2
ag6
ag237
ag58
ag17
ag149
ag122
ag209
ag12
aa(lp1100
g2
ag26
ag290
ag8
ag12
aa(lp1101
g2
ag17
ag12
aa(lp1102
g2
ag818
ag384
ag12
aa(lp1103
g2
ag26
ag207
ag8
ag65
ag12
aa(lp1104
g2
ag131
ag46
ag146
ag154
ag12
aa(lp1105
g2
ag36
ag167
ag173
ag17
ag41
ag10
ag12
aa(lp1106
g2
ag26
ag290
ag8
ag12
aa(lp1107
g2
ag31
ag17
ag152
ag10
ag12
aa(lp1108
g2
ag193
ag237
ag12
aa(lp1109
g2
ag63
ag12
aa(lp1110
g2
ag63
ag12
aa(lp1111
g2
ag17
ag106
ag41
ag53
ag244
ag813
ag290
ag24
ag67
ag8
ag65
ag167
ag129
ag12
aa(lp1112
g2
ag139
ag38
ag182
ag445
ag12
aa(lp1113
g2
ag22
ag318
ag46
ag12
aa(lp1114
g2
ag182
ag17
ag12
aa(lp1115
g2
ag6
ag12
aa(lp1116
g2
ag149
ag69
ag111
ag12
aa(lp1117
g2
ag6
ag149
ag152
ag65
ag12
aa(lp1118
g2
ag152
ag193
ag106
ag237
ag12
aa(lp1119
g2
ag182
ag290
ag12
aa(lp1120
g2
ag36
ag167
ag31
ag10
ag73
ag12
aa(lp1121
g2
ag117
ag214
ag12
aa(lp1122
g2
ag22
ag41
ag17
ag58
ag167
ag12
aa(lp1123
g2
ag60
ag12
aa(lp1124
g2
ag63
ag71
ag149
ag67
ag10
ag12
aa(lp1125
g2
ag36
ag12
aa(lp1126
g2
ag131
ag60
ag6
ag22
ag12
aa(lp1127
g2
ag94
ag131
ag60
ag12
aa(lp1128
g2
ag63
ag108
ag12
aa(lp1129
g2
ag53
ag10
ag12
aa(lp1130
g2
ag322
ag186
ag12
aa(lp1131
g2
ag113
ag41
ag111
ag58
ag12
aa(lp1132
g2
ag6
ag12
aa(lp1133
g2
ag15
ag182
ag38
ag149
ag12
aa(lp1134
g2
ag71
ag237
ag91
ag12
aa(lp1135
g2
ag165
ag22
ag87
ag8
ag12
aa(lp1136
g2
ag348
ag275
ag278
ag422
ag12
aa(lp1137
g2
ag29
ag17
ag12
aa(lp1138
g2
ag17
ag146
ag154
ag12
aa(lp1139
g2
ag239
a(ipoint
Point
p1140
(dp1141
g4
I17
sg5
I2
sbag222
ag182
a(ipoint
Point
p1142
(dp1143
g4
I1
sg5
I24
sbag12
aa(lp1144
g2
ag31
ag83
ag81
ag525
ag12
aa(lp1145
g2
ag149
ag12
aa(lp1146
g2
ag48
ag46
ag141
ag12
aa(lp1147
g2
ag87
ag10
ag41
ag167
ag12
aa(lp1148
g2
ag36
ag12
aa(lp1149
g2
ag36
ag31
ag83
ag12
aa(lp1150
g2
ag38
ag22
ag41
ag476
ag53
ag12
aa(lp1151
g2
ag117
ag12
aa(lp1152
g2
ag17
ag58
ag33
ag12
aa(lp1153
g2
ag563
ag38
ag117
ag384
ag12
aa(lp1154
g2
ag113
ag87
ag19
ag29
ag12
aa(lp1155
g2
ag38
ag17
ag12
aa(lp1156
g2
ag6
ag17
ag12
aa(lp1157
g2
ag102
ag12
aa(lp1158
g2
ag44
ag12
aa(lp1159
g2
ag117
ag58
ag17
ag12
aa(lp1160
g2
ag186
ag12
aa(lp1161
g2
ag6
ag17
ag12
aa(lp1162
g2
ag31
ag38
ag113
ag12
aa(lp1163
g2
ag63
ag31
ag83
ag44
ag19
ag12
aa(lp1164
g2
ag6
ag237
ag44
ag136
ag133
ag65
ag209
ag12
aa(lp1165
g2
ag98
ag160
ag41
ag237
ag108
ag81
ag12
aa(lp1166
g2
ag129
ag65
ag26
ag12
aa(lp1167
g2
ag10
ag69
ag44
ag33
ag12
aa(lp1168
g2
ag193
ag58
ag167
ag12
aa(lp1169
g2
ag113
ag41
ag58
ag167
ag12
aa(lp1170
g2
ag98
ag160
ag41
ag237
ag108
ag81
ag12
aa(lp1171
g2
ag38
ag63
ag46
ag83
ag12
aa(lp1172
g2
ag117
ag8
ag12
aa(lp1173
g2
ag188
ag322
ag12
aa(lp1174
g2
ag525
ag290
ag203
ag162
ag12
aa(lp1175
g2
ag165
ag29
ag22
ag12
aa(lp1176
g2
ag563
ag17
ag12
aa(lp1177
g2
ag38
ag12
aa(lp1178
g2
ag17
ag10
ag12
aa(lp1179
g2
ag193
ag12
aa(lp1180
g2
ag38
ag33
ag31
ag83
ag17
ag149
ag177
ag120
ag152
ag85
ag10
ag73
ag290
ag81
ag51
ag94
ag165
ag12
aa(lp1181
g2
ag31
ag12
aa(lp1182
g2
ag63
ag12
aa(lp1183
g2
ag301
ag182
ag476
ag22
ag12
aa(lp1184
g2
ag63
ag53
ag133
ag12
aa(lp1185
g2
ag141
ag152
ag33
ag12
aa(lp1186
g2
ag73
ag12
aa(lp1187
g2
ag36
ag94
ag12
aa(lp1188
g2
ag44
ag113
ag12
aa(lp1189
g2
ag98
ag160
ag41
ag237
ag108
ag81
ag12
aa(lp1190
g2
ag31
ag48
ag592
ag126
ag12
aa(lp1191
g2
ag31
ag12
aa(lp1192
g2
ag102
ag60
ag12
aa(lp1193
g2
ag36
ag71
ag244
ag12
aa(lp1194
g2
ag31
ag12
aa(lp1195
g2
ag152
ag173
ag29
ag65
ag12
aa(lp1196
g2
ag15
ag131
ag12
aa(lp1197
g2
ag44
ag12
aa(lp1198
g2
ag6
ag12
aa(lp1199
g2
ag139
ag129
ag12
aa(lp1200
g2
ag71
ag33
ag12
aa(lp1201
g2
ag222
ag131
ag422
ag12
aa(lp1202
g2
ag131
ag60
ag12
aa(lp1203
g2
ag10
ag41
ag384
ag111
ag12
aa(lp1204
g2
ag44
ag111
ag8
ag29
ag167
ag12
aa(lp1205
g2
ag53
ag318
ag167
ag12
aa(lp1206
g2
ag182
ag63
ag108
ag12
aa(lp1207
g2
ag384
ag12
aa(lp1208
g2
ag44
ag12
aa(lp1209
g2
ag63
ag108
ag12
aa(lp1210
g2
ag171
ag6
ag146
ag12
aa(lp1211
g2
a(ipoint
Point
p1212
(dp1213
g4
I1
sg5
I26
sbag207
ag60
ag46
ag12
aa(lp1214
g2
ag10
ag8
ag12
aa(lp1215
g2
ag38
ag33
ag31
ag29
ag51
ag83
ag58
ag69
ag22
ag12
aa(lp1216
g2
ag29
ag219
ag12
aa(lp1217
g2
ag149
ag12
aa(lp1218
g2
ag31
ag48
ag476
ag316
ag10
ag12
aa(lp1219
g2
ag29
ag182
ag83
ag173
ag12
aa(lp1220
g2
ag219
ag835
ag106
ag117
ag177
ag12
aa(lp1221
g2
ag17
ag12
aa(lp1222
g2
ag17
ag12
aa(lp1223
g2
ag44
ag12
aa(lp1224
g2
ag38
ag46
ag17
ag177
ag22
ag314
ag12
aa(lp1225
g2
ag129
ag209
ag6
ag237
ag111
ag17
ag193
ag12
aa(lp1226
g2
ag139
ag275
ag322
ag94
ag12
aa(lp1227
g2
ag71
ag33
ag12
aa(lp1228
g2
ag129
ag63
ag46
ag81
ag12
aa(lp1229
g2
ag44
ag12
aa(lp1230
g2
ag6
ag60
ag26
ag12
aa(lp1231
g2
ag63
ag12
aa(lp1232
g2
ag22
ag41
ag58
ag33
ag167
ag12
aa(lp1233
g2
ag48
ag46
ag12
aa(lp1234
g2
ag38
ag12
aa(lp1235
g2
ag85
ag58
ag167
ag214
ag12
aa(lp1236
g2
ag38
ag63
ag31
ag29
ag65
ag10
a(ipoint
Point
p1237
(dp1238
g4
I7
sg5
I20
sbag12
aa(lp1239
g2
ag31
ag12
aa(lp1240
g2
ag177
ag126
ag162
ag26
ag12
aa(lp1241
g2
ag63
ag12
aa(lp1242
g2
ag94
ag12
aa(lp1243
g2
ag17
ag10
ag65
ag12
aa(lp1244
g2
ag6
ag17
ag12
aa(lp1245
g2
ag563
ag38
ag63
ag31
ag167
ag96
ag182
ag48
ag17
ag41
ag113
ag12
aa(lp1246
g2
ag6
ag17
ag12
aa(lp1247
g2
ag129
ag36
ag31
ag81
ag133
ag65
ag67
ag85
ag106
ag87
ag400
ag12
aa(lp1248
g2
ag400
ag78
ag126
ag12
aa(lp1249
g2
ag94
ag12
aa(lp1250
g2
ag63
ag182
ag12
aa(lp1251
g2
ag102
ag17
ag10
ag81
ag12
aa(lp1252
g2
ag63
ag108
ag12
aa(lp1253
g2
ag31
ag167
ag214
ag12
aa(lp1254
g2
ag165
ag167
ag31
ag58
ag22
ag87
ag12
aa(lp1255
g2
ag29
ag12
aa(lp1256
g2
ag117
ag111
ag108
ag12
aa(lp1257
g2
ag44
ag146
ag154
ag12
aa(lp1258
g2
ag102
ag38
ag29
ag182
ag12
aa(lp1259
g2
ag188
ag63
ag31
ag81
ag53
ag12
aa(lp1260
g2
ag6
ag12
aa(lp1261
g2
ag38
ag12
aa(lp1262
g2
ag102
ag60
ag12
aa(lp1263
g2
ag239
ag12
aa(lp1264
g2
ag63
ag31
ag48
ag133
ag384
ag41
ag160
ag10
ag19
ag12
aa(lp1265
g2
ag219
ag136
ag108
ag12
aa(lp1266
g2
ag222
ag63
ag12
aa(lp1267
g2
ag193
ag73
ag33
ag12
aa(lp1268
g2
ag38
ag31
ag17
ag316
ag12
aa(lp1269
g2
ag129
ag131
ag65
ag152
ag78
ag12
aa(lp1270
g2
ag94
ag96
ag83
ag12
aa(lp1271
g2
ag10
ag201
ag69
ag58
ag96
ag167
ag12
aa(lp1272
g2
ag60
ag26
ag122
ag12
aa(lp1273
g2
ag71
ag33
ag12
aa(lp1274
g2
ag422
ag154
ag12
aa(lp1275
g2
ag44
ag12
aa(lp1276
g2
ag29
ag81
ag71
ag12
aa(lp1277
g2
a(ipoint
Point
p1278
(dp1279
g4
I1
sg5
I16
sbag78
ag87
ag58
ag12
aa(lp1280
g2
ag36
ag94
ag44
ag12
aa(lp1281
g2
ag26
ag106
ag12
aa(lp1282
g2
ag63
ag29
ag96
ag592
ag209
ag12
aa(lp1283
g2
ag422
ag71
ag384
ag285
ag12
aa(lp1284
g2
ag38
ag12
aa(lp1285
g2
ag38
ag63
ag173
ag46
ag44
ag12
aa(lp1286
g2
ag290
ag12
aa(lp1287
g2
ag354
a(ipoint
Point
p1288
(dp1289
g4
I19
sg5
I20
sba(ipoint
Point
p1290
(dp1291
g4
I19
sg5
I26
sbag12
aa(lp1292
g2
ag188
ag31
ag17
ag12
aa(lp1293
g2
ag149
ag12
aa(lp1294
g2
ag71
ag17
ag207
ag8
ag26
ag219
ag214
ag12
aa(lp1295
g2
ag17
ag58
ag12
aa(lp1296
g2
ag31
ag29
ag38
ag12
aa(lp1297
g2
ag6
ag12
aa(lp1298
g2
ag71
ag33
ag108
ag12
aa(lp1299
g2
ag38
ag12
aa(lp1300
g2
ag322
ag102
ag12
aa(lp1301
g2
ag63
ag71
ag12
aa(lp1302
g2
ag129
ag222
ag290
ag731
ag12
aa(lp1303
g2
ag38
ag117
ag17
ag22
ag12
aa(lp1304
g2
ag44
ag12
aa(lp1305
g2
ag154
ag69
ag44
ag283
ag91
ag12
aa(lp1306
g2
ag44
ag12
aa(lp1307
g2
ag38
ag12
aa(lp1308
g2
ag129
ag63
ag108
ag71
ag12
aa(lp1309
g2
ag44
ag113
ag12
aa(lp1310
g2
ag48
ag29
ag44
ag12
aa(lp1311
g2
ag165
ag38
ag117
ag83
ag173
ag12
aa(lp1312
g2
ag188
ag31
ag12
aa(lp1313
g2
ag117
ag73
ag12
aa(lp1314
g2
ag17
ag12
aa(lp1315
g2
ag44
ag12
aa(lp1316
g2
ag113
ag58
ag12
aa(lp1317
g2
ag149
ag108
ag12
aa(lp1318
g2
ag177
ag87
ag10
ag136
ag12
aa(lp1319
g2
ag182
ag12
aa(lp1320
g2
ag10
ag51
ag12
aa(lp1321
g2
ag15
ag29
ag38
ag102
ag6
ag124
ag17
ag113
ag12
aa(lp1322
g2
ag31
ag85
ag12
aa(lp1323
g2
ag87
ag69
ag136
ag108
ag12
aa(lp1324
g2
ag177
ag87
ag133
ag12
aa(lp1325
g2
ag31
ag46
ag83
ag162
ag91
ag12
aa(lp1326
g2
ag26
ag219
ag8
ag12
aa(lp1327
g2
ag36
ag83
ag85
ag244
ag122
ag12
aa(lp1328
g2
ag38
ag31
ag29
ag476
ag85
ag87
ag12
aa(lp1329
g2
ag476
ag136
ag12
aa(lp1330
g2
ag182
ag48
ag290
ag12
aa(lp1331
g2
ag31
ag96
ag12
aa(lp1332
g2
ag314
ag777
ag8
ag12
aa(lp1333
g2
ag38
ag12
aa(lp1334
g2
ag38
ag12
aa(lp1335
g2
ag6
ag12
aa(lp1336
g2
ag71
ag12
aa(lp1337
g2
ag165
ag38
ag31
ag29
ag44
ag17
ag22
ag12
aa(lp1338
g2
ag63
ag12
aa(lp1339
g2
ag17
ag12
aa(lp1340
g2
ag17
ag41
ag22
ag12
aa(lp1341
g2
ag44
ag8
ag12
aa(lp1342
g2
ag38
ag63
ag117
ag8
ag12
aa(lp1343
g2
ag22
ag53
ag33
ag12
aa(lp1344
g2
ag563
ag322
ag12
aa(lp1345
g2
ag290
ag12
aa(lp1346
g2
ag29
ag12
aa(lp1347
g2
ag38
ag33
ag237
ag91
ag12
aa(lp1348
g2
ag193
ag290
ag12
aa(lp1349
g2
ag85
ag58
ag111
ag8
ag65
ag167
ag709
ag12
aa(lp1350
g2
ag131
ag222
ag46
ag31
ag83
ag85
ag12
aa(lp1351
g2
ag117
ag58
ag17
ag167
ag12
aa(lp1352
g2
ag182
ag63
ag209
ag12
aa(lp1353
g2
ag384
ag382
ag219
ag162
ag91
ag12
aa(lp1354
g2
ag6
ag8
ag219
ag12
aa(lp1355
g2
ag131
ag133
ag48
ag141
ag12
aa(lp1356
g2
ag131
ag83
ag108
ag12
aa(lp1357
g2
ag165
ag38
ag46
ag10
ag12
aa(lp1358
g2
ag322
ag12
aa(lp1359
g2
ag322
ag12
aa(lp1360
g2
ag17
ag12
aa(lp1361
g2
ag36
ag94
ag29
ag31
ag10
ag12
aa(lp1362
g2
ag314
ag113
ag78
ag12
aa(lp1363
g2
ag177
ag22
ag162
ag12
aa(lp1364
g2
ag171
ag83
ag58
ag33
ag12
aa(lp1365
g2
ag31
ag33
ag12
aa(lp1366
g2
ag278
ag322
ag188
ag94
ag65
ag12
aa(lp1367
g2
ag275
ag152
ag22
ag12
aa(lp1368
g2
ag17
ag12
aa(lp1369
g2
ag22
ag87
ag10
ag106
ag58
ag46
ag133
ag12
aa(lp1370
g2
ag29
ag12
aa(lp1371
g2
ag94
ag12
aa(lp1372
g2
ag10
ag111
ag12
aa(lp1373
g2
ag290
ag81
ag445
ag129
ag12
aa(lp1374
g2
ag29
ag12
aa(lp1375
g2
ag17
ag111
ag12
aa(lp1376
g2
ag36
ag94
ag29
ag182
ag44
ag12
aa(lp1377
g2
ag131
ag12
aa(lp1378
g2
ag102
ag12
aa(lp1379
g2
ag38
ag12
aa(lp1380
g2
ag6
ag12
aa(lp1381
g2
ag149
ag17
ag108
ag12
aa(lp1382
g2
ag154
ag126
ag111
ag46
ag91
ag12
aa(lp1383
g2
ag31
ag46
ag182
ag12
aa(lp1384
g2
ag38
ag12
aa(lp1385
g2
ag94
ag29
ag51
ag12
aa(lp1386
g2
ag60
ag26
ag12
aa(lp1387
g2
ag384
ag26
ag835
ag8
ag12
aa(lp1388
g2
ag26
ag8
ag12
aa(lp1389
g2
ag22
ag122
ag41
ag285
ag12
aa(lp1390
g2
ag193
ag237
ag12
aa(lp1391
g2
ag94
ag131
ag133
ag83
ag10
ag1039
ag78
ag12
aa(lp1392
g2
ag131
ag38
ag12
aa(lp1393
g2
ag71
ag33
ag12
aa(lp1394
g2
ag1140
ag182
ag29
ag173
ag85
ag12
aa(lp1395
g2
ag22
ag87
ag162
ag44
ag12
aa(lp1396
g2
ag31
ag51
ag53
ag813
ag12
aa(lp1397
g2
ag129
ag83
ag113
ag12
aa(lp1398
g2
ag6
ag17
ag12
aa(lp1399
g2
ag17
ag237
ag12
aa(lp1400
g2
ag36
ag167
ag96
ag31
ag22
ag12
aa(lp1401
g2
ag26
ag8
ag12
aa(lp1402
g2
ag316
ag290
ag205
ag81
ag209
ag12
aa(lp1403
g2
ag384
ag12
aa(lp1404
g2
ag31
ag71
ag12
aa(lp1405
g2
ag17
ag53
ag46
ag12
aa(lp1406
g2
ag17
ag12
aa(lp1407
g2
ag322
ag285
ag12
aa(lp1408
g2
ag36
ag31
ag12
aa(lp1409
g2
ag400
ag10
ag41
ag58
ag173
ag214
ag12
aa(lp1410
g2
ag38
ag29
ag12
aa(lp1411
g2
ag31
ag12
aa(lp1412
g2
ag10
ag69
ag162
ag19
ag12
aa(lp1413
g2
ag188
ag71
ag17
ag272
ag12
aa(lp1414
g2
ag87
ag162
ag58
ag111
ag33
ag19
ag12
aa(lp1415
g2
ag38
ag17
ag81
a(ipoint
Point
p1416
(dp1417
g4
I21
sg5
I24
sbag12
aa(lp1418
g2
ag87
ag203
ag205
ag111
ag12
aa(lp1419
g2
ag44
ag85
ag146
ag12
aa(lp1420
g2
ag38
ag63
ag17
ag12
aa(lp1421
g2
ag44
ag83
ag46
ag12
aa(lp1422
g2
ag87
ag69
ag58
ag209
ag12
aa(lp1423
g2
ag149
ag12
aa(lp1424
g2
ag63
ag108
ag12
aa(lp1425
g2
ag102
ag120
ag207
ag12
aa(lp1426
g2
ag171
ag182
ag10
ag199
ag12
aa(lp1427
g2
ag63
ag108
ag12
aa(lp1428
g2
ag63
ag108
ag12
aa(lp1429
g2
ag182
ag17
ag193
ag122
ag146
ag12
aa(lp1430
g2
ag188
ag31
ag44
ag22
ag26
ag12
aa(lp1431
g2
ag149
ag400
ag12
aa(lp1432
g2
ag129
ag6
ag149
ag26
ag12
aa(lp1433
g2
ag131
ag182
ag44
ag12
aa(lp1434
g2
ag63
ag31
ag12
aa(lp1435
g2
ag186
ag171
ag146
ag386
ag12
aa(lp1436
g2
ag63
ag12
aa(lp1437
g2
ag38
ag12
aa(lp1438
g2
ag36
ag71
ag67
ag12
aa(lp1439
g2
ag38
ag17
ag12
aa(lp1440
g2
ag188
ag31
ag38
ag113
ag12
aa(lp1441
g2
ag63
ag71
ag73
ag12
aa(lp1442
g2
ag31
ag12
aa(lp1443
g2
ag188
ag322
ag12
aa(lp1444
g2
ag149
ag85
ag201
ag58
ag136
ag12
aa(lp1445
g2
ag60
ag126
ag177
ag102
ag12
aa(lp1446
g2
ag384
ag111
ag108
ag283
ag12
aa(lp1447
g2
ag117
ag162
ag12
aa(lp1448
g2
ag60
ag46
ag12
aa(lp1449
g2
ag10
ag41
ag12
aa(lp1450
g2
ag29
ag19
ag12
aa(lp1451
g2
ag22
ag126
ag12
aa(lp1452
g2
ag83
ag173
ag108
ag12
aa(lp1453
g2
ag322
ag188
ag31
ag17
ag12
aa(lp1454
g2
ag165
ag38
ag182
ag91
ag12
aa(lp1455
g2
ag272
ag24
ag78
ag19
ag12
aa(lp1456
g2
ag272
ag24
ag78
ag19
ag12
aa(lp1457
g2
ag38
ag12
aa(lp1458
g2
ag44
ag12
aa(lp1459
g2
ag165
ag177
ag67
ag272
ag12
aa(lp1460
g2
ag31
ag29
ag17
ag10
ag12
aa(lp1461
g2
ag17
ag46
ag167
ag12
aa(lp1462
g2
ag272
ag24
ag162
ag91
ag12
aa(lp1463
g2
ag131
ag98
ag12
aa(lp1464
g2
ag29
ag592
ag214
ag12
aa(lp1465
g2
ag476
ag111
ag96
ag214
ag209
ag285
ag12
aa(lp1466
g2
ag6
ag17
ag46
ag12
aa(lp1467
g2
ag322
ag38
ag117
ag111
ag12
aa(lp1468
g2
ag146
ag69
ag12
aa(lp1469
g2
ag31
ag33
ag12
aa(lp1470
g2
ag38
ag33
ag31
ag29
ag182
ag85
ag73
ag12
aa(lp1471
g2
ag278
ag131
ag83
ag12
aa(lp1472
g2
ag188
ag322
ag12
aa(lp1473
g2
ag141
ag149
ag146
ag209
ag12
aa(lp1474
g2
ag188
ag29
ag19
ag12
aa(lp1475
g2
ag6
ag58
ag17
ag108
ag91
ag239
ag12
aa(lp1476
g2
ag73
ag777
ag33
ag12
aa(lp1477
g2
ag131
ag117
ag162
ag22
ag12
aa(lp1478
g2
ag71
ag33
ag12
aa(lp1479
g2
ag17
ag58
ag111
ag46
ag167
ag12
aa(lp1480
g2
ag563
ag244
ag136
ag272
ag12
aa(lp1481
g2
ag22
ag160
ag146
ag290
ag207
ag60
ag136
ag81
ag46
ag48
ag65
ag445
ag12
aa(lp1482
g2
ag44
ag108
ag12
aa(lp1483
g2
ag36
ag94
ag85
ag12
aa(lp1484
g2
ag29
ag182
ag60
ag207
ag71
ag290
ag12
aa(lp1485
g2
ag53
ag162
ag19
ag12
aa(lp1486
g2
ag141
ag149
ag122
ag41
ag476
ag6
ag12
aa(lp1487
g2
ag10
ag53
ag58
ag327
ag12
aa(lp1488
g2
ag102
ag173
ag29
ag17
ag113
ag12
aa(lp1489
g2
ag171
ag182
ag400
ag12
aa(lp1490
g2
ag94
ag133
ag12
aa(lp1491
g2
ag15
ag131
ag31
ag38
ag12
aa(lp1492
g2
ag152
ag85
ag10
ag12
aa(lp1493
g2
ag38
ag63
ag46
ag81
ag17
ag12
aa(lp1494
g2
ag87
ag10
ag111
ag162
ag12
aa(lp1495
g2
ag165
ag29
ag146
ag154
ag12
aa(lp1496
g2
ag71
ag12
aa(lp1497
g2
ag38
ag63
ag31
ag29
ag44
ag17
ag12
aa(lp1498
g2
ag63
ag182
ag12
aa(lp1499
g2
ag131
ag12
aa(lp1500
g2
ag165
ag214
ag94
ag131
ag29
ag31
ag44
ag69
ag41
ag12
aa(lp1501
g2
ag36
ag31
ag46
ag81
ag83
ag17
ag12
aa(lp1502
g2
ag85
ag12
aa(lp1503
g2
ag131
ag83
ag98
ag12
aa(lp1504
g2
ag83
ag12
aa(lp1505
g2
ag83
ag162
ag12
aa(lp1506
g2
ag83
ag44
ag12
aa(lp1507
g2
ag17
ag12
aa(lp1508
g2
ag182
ag51
ag283
ag12
aa(lp1509
g2
ag31
ag46
ag12
aa(lp1510
g2
ag314
ag158
ag78
ag12
aa(lp1511
g2
ag63
ag12
aa(lp1512
g2
ag146
ag41
ag33
ag12
aa(lp1513
g2
ag6
ag12
aa(lp1514
g2
ag165
ag22
ag12
aa(lp1515
g2
ag60
ag117
ag12
aa(lp1516
g2
ag152
ag41
ag318
ag214
ag165
ag709
ag12
aa(lp1517
g2
ag188
ag301
ag83
ag162
ag12
aa(lp1518
g2
ag129
ag301
ag17
ag12
aa(lp1519
g2
ag102
ag38
ag63
ag31
ag167
ag222
ag301
ag51
ag592
ag17
ag71
ag193
ag41
ag244
ag98
ag10
ag12
aa(lp1520
g2
ag22
ag12
aa(lp1521
g2
ag15
ag182
ag63
ag108
ag12
aa(lp1522
g2
ag322
ag63
ag12
aa(lp1523
g2
ag275
ag129
ag167
ag222
ag60
ag26
ag835
ag158
ag76
ag162
ag12
aa(lp1524
g2
ag149
ag12
aa(lp1525
g2
ag85
ag111
ag167
ag12
aa(lp1526
g2
ag38
ag31
ag167
ag17
ag91
ag12
aa(lp1527
g2
ag301
ag31
ag244
ag12
aa(lp1528
g2
ag63
ag108
ag73
ag12
aa(lp1529
g2
ag177
ag26
ag65
ag12
aa(lp1530
g2
ag31
ag29
ag48
ag65
ag167
ag214
ag12
aa(lp1531
g2
ag36
ag12
aa(lp1532
g2
ag10
ag106
ag237
ag8
ag136
ag133
ag12
aa(lp1533
g2
ag177
ag146
ag69
ag12
aa(lp1534
g2
ag146
ag69
ag46
ag19
ag12
aa(lp1535
g2
ag322
ag12
aa(lp1536
g2
ag38
ag12
aa(lp1537
g2
ag38
ag12
aa(lp1538
g2
ag17
ag46
ag81
ag33
ag12
aa(lp1539
g2
ag322
ag188
ag182
ag85
ag12
aa(lp1540
g2
ag44
ag12
aa(lp1541
g2
ag177
ag318
ag8
ag46
ag12
aa(lp1542
g2
ag186
ag129
ag12
aa(lp1543
g2
ag129
ag17
ag12
aa(lp1544
g2
ag44
ag12
aa(lp1545
g2
ag83
ag58
ag33
ag709
ag12
aa(lp1546
g2
ag85
ag69
ag167
ag12
aa(lp1547
g2
ag29
ag182
ag209
ag12
aa(lp1548
g2
ag182
ag22
ag12
aa(lp1549
g2
ag129
ag12
aa(lp1550
g2
ag17
ag12
aa(lp1551
g2
ag38
ag12
aa(lp1552
g2
ag186
ag83
ag314
ag12
aa(lp1553
g2
ag38
ag12
aa(lp1554
g2
ag129
ag214
ag94
ag31
ag33
ag17
ag12
aa(lp1555
g2
ag171
ag182
ag67
ag12
aa(lp1556
g2
ag275
ag38
ag152
ag199
ag201
ag85
ag65
ag12
aa(lp1557
g2
ag38
ag209
ag149
ag69
ag44
ag136
ag65
ag133
ag219
ag777
ag158
ag87
ag76
ag12
aa(lp1558
g2
ag102
ag12
aa(lp1559
g2
ag36
ag12
aa(lp1560
g2
ag71
ag17
ag58
ag162
ag12
aa(lp1561
g2
ag87
ag69
ag12
aa(lp1562
g2
ag6
ag12
aa(lp1563
g2
ag22
ag41
ag58
ag31
ag167
ag214
ag12
aa(lp1564
g2
ag36
ag167
ag29
ag173
ag63
ag38
ag71
ag17
ag85
ag10
ag73
ag87
ag12
aa(lp1565
g2
ag29
ag83
ag237
ag12
aa(lp1566
g2
ag17
ag12
aa(lp1567
g2
ag44
ag12
aa(lp1568
g2
ag63
ag108
ag12
aa(lp1569
g2
ag85
ag58
ag167
ag12
aa(lp1570
g2
ag31
ag12
aa(lp1571
g2
ag53
ag58
ag167
ag214
ag12
aa(lp1572
g2
ag60
ag117
ag12
aa(lp1573
g2
ag186
ag31
ag85
ag113
ag12
aa(lp1574
g2
ag6
ag71
ag136
ag48
ag12
aa(lp1575
g2
ag17
ag12
aa(lp1576
g2
ag38
ag53
ag12
aa(lp1577
g2
ag94
ag17
ag10
ag12
aa(lp1578
g2
ag71
ag33
ag12
aa(lp1579
g2
ag36
ag44
ag111
ag8
ag69
ag12
aa(lp1580
g2
ag131
ag222
ag60
ag592
ag12
aa(lp1581
g2
ag76
ag257
ag126
ag65
ag12
aa(lp1582
g2
ag60
ag117
ag12
aa(lp1583
g2
ag171
ag31
ag33
ag12
aa(lp1584
g2
ag31
ag46
ag44
ag26
ag12
aa(lp1585
g2
ag117
ag63
ag214
ag12
aa(lp1586
g2
ag73
ag12
aa(lp1587
g2
ag171
ag182
ag12
aa(lp1588
g2
ag31
ag29
ag182
ag111
ag167
ag12
aa(lp1589
g2
ag53
ag10
ag85
ag69
ag44
ag46
ag167
ag12
aa(lp1590
g2
ag71
ag108
ag12
aa(lp1591
g2
ag152
ag46
ag12
aa(lp1592
g2
ag193
ag237
ag12
aa(lp1593
g2
ag400
ag158
ag53
ag51
ag12
aa(lp1594
g2
ag139
ag63
ag44
ag12
aa(lp1595
g2
ag177
ag53
ag8
ag136
ag65
ag12
aa(lp1596
g2
ag182
ag8
ag17
ag124
ag6
ag283
ag12
aa(lp1597
g2
ag102
ag22
ag87
ag12
aa(lp1598
g2
ag152
ag162
ag12
aa(lp1599
g2
ag290
ag237
ag108
ag12
aa(lp1600
g2
ag182
ag102
ag22
ag314
ag87
ag1039
ag12
aa(lp1601
g2
ag87
ag158
ag51
ag12
aa(lp1602
g2
ag102
ag12
aa(lp1603
g2
ag6
ag85
ag46
ag65
ag301
ag12
aa(lp1604
g2
ag44
ag12
aa(lp1605
g2
ag165
ag38
ag149
ag81
ag48
ag133
ag91
ag12
aa(lp1606
g2
ag17
ag10
ag1039
ag12
aa(lp1607
g2
ag17
ag207
ag26
ag12
aa(lp1608
g2
ag129
ag12
aa(lp1609
g2
ag22
ag78
ag12
aa(lp1610
g2
ag83
ag173
ag94
ag12
aa(lp1611
g2
ag36
ag12
aa(lp1612
g2
ag131
ag182
ag48
ag17
ag53
ag78
ag12
aa(lp1613
g2
ag83
ag8
ag44
ag12
aa(lp1614
g2
ag36
ag71
ag12
aa(lp1615
g2
ag146
ag219
ag111
ag12
aa(lp1616
g2
ag36
ag94
ag29
ag173
ag12
aa(lp1617
g2
ag31
ag44
ag65
ag12
aa(lp1618
g2
ag117
ag214
ag12
aa(lp1619
g2
ag348
ag102
ag108
ag46
ag81
ag67
ag26
ag835
ag201
ag400
ag12
aa(lp1620
g2
ag63
ag182
ag65
ag384
ag193
ag12
aa(lp1621
g2
ag38
ag31
ag149
ag12
aa(lp1622
g2
ag31
ag17
ag709
ag731
ag12
aa(lp1623
g2
ag301
ag44
ag12
aa(lp1624
g2
ag165
ag44
ag136
ag12
aa(lp1625
g2
ag17
ag58
ag214
ag12
aa(lp1626
g2
ag17
ag318
ag46
ag12
aa(lp1627
g2
ag1140
ag38
ag12
aa(lp1628
g2
ag31
ag12
aa(lp1629
g2
ag193
ag12
aa(lp1630
g2
ag131
ag65
ag83
ag126
ag152
ag12
aa(lp1631
g2
ag17
ag162
ag12
aa(lp1632
g2
ag26
ag81
ag167
ag12
aa(lp1633
g2
ag182
ag51
ag46
ag173
ag12
aa(lp1634
g2
ag31
ag244
ag290
ag12
aa(lp1635
g2
ag129
ag167
ag182
ag193
ag12
aa(lp1636
g2
ag17
ag12
aa(lp1637
g2
ag186
ag12
aa(lp1638
g2
ag131
ag83
ag12
aa(lp1639
g2
ag139
ag275
ag129
ag12
aa(lp1640
g2
ag63
ag214
ag165
ag12
aa(lp1641
g2
ag17
ag51
ag12
aa(lp1642
g2
ag188
ag182
ag193
ag12
aa(lp1643
g2
ag165
ag131
ag83
ag12
aa(lp1644
g2
ag38
ag17
ag133
ag12
aa(lp1645
g2
ag6
ag152
ag41
ag12
aa(lp1646
g2
ag87
ag10
ag237
ag162
ag12
aa(lp1647
g2
ag15
ag29
ag173
ag19
ag12
aa(lp1648
g2
ag29
ag17
ag177
ag12
aa(lp1649
g2
ag117
ag162
ag12
aa(lp1650
g2
ag275
ag298
ag12
aa(lp1651
g2
ag26
ag160
ag33
ag12
aa(lp1652
g2
ag6
ag12
aa(lp1653
g2
ag17
ag44
ag162
ag12
aa(lp1654
g2
ag1140
ag38
ag12
aa(lp1655
g2
ag6
ag65
ag12
aa(lp1656
g2
ag422
ag237
ag17
ag65
ag12
aa(lp1657
g2
ag6
ag237
ag44
ag65
ag26
ag12
aa(lp1658
g2
ag31
ag29
ag38
ag12
aa(lp1659
g2
ag182
ag46
ag117
ag244
ag12
aa(lp1660
g2
ag129
ag94
ag26
ag12
aa(lp1661
g2
ag17
ag12
aa(lp1662
g2
ag38
ag162
ag12
aa(lp1663
g2
ag38
ag193
ag136
ag12
aa(lp1664
g2
ag6
ag117
ag12
aa(lp1665
g2
ag44
ag117
ag12
aa(lp1666
g2
ag129
ag63
ag29
ag12
aa(lp1667
g2
ag188
ag63
ag85
ag12
aa(lp1668
g2
ag222
ag133
ag182
ag44
ag87
ag400
ag12
aa(lp1669
g2
ag244
ag12
aa(lp1670
g2
ag131
ag83
ag12
aa(lp1671
g2
ag188
ag29
ag44
ag17
ag400
ag12
aa(lp1672
g2
ag296
ag129
ag12
aa(lp1673
g2
ag38
ag31
ag17
ag149
ag113
ag12
aa(lp1674
g2
ag71
ag12
aa(lp1675
g2
ag36
ag94
ag31
ag53
ag12
aa(lp1676
g2
ag6
ag12
aa(lp1677
g2
ag149
ag69
ag46
ag10
ag12
aa(lp1678
g2
ag38
ag12
aa(lp1679
g2
ag31
ag81
ag51
ag12
aa(lp1680
g2
ag188
ag322
ag12
aa(lp1681
g2
ag129
ag65
ag182
ag316
ag87
ag78
ag12
aa(lp1682
g2
ag38
ag12
aa(lp1683
g2
ag38
ag12
aa(lp1684
g2
ag38
ag149
ag12
aa(lp1685
g2
ag129
ag65
ag182
ag316
ag87
ag78
ag12
aa(lp1686
g2
ag141
ag152
ag146
ag400
ag290
ag8
ag133
ag165
ag12
aa(lp1687
g2
ag131
ag141
ag12
aa(lp1688
g2
ag36
ag94
ag173
ag81
ag12
aa(lp1689
g2
ag38
ag46
ag48
ag17
ag41
ag12
aa(lp1690
g2
ag63
ag73
ag598
ag12
aa(lp1691
g2
ag36
ag117
ag26
ag87
ag12
aa(lp1692
g2
ag38
ag167
ag131
ag48
ag17
ag41
ag12
aa(lp1693
g2
ag400
ag158
ag58
ag33
ag167
ag209
ag12
aa(lp1694
g2
ag83
ag8
ag12
aa(lp1695
g2
ag314
ag162
ag33
ag65
ag91
ag12
aa(lp1696
g2
ag94
ag301
ag102
ag12
aa(lp1697
g2
ag71
ag33
ag12
aa(lp1698
g2
ag186
ag171
ag15
ag152
ag12
aa(lp1699
g2
ag26
ag318
ag69
ag173
ag12
aa(lp1700
g2
ag296
ag129
ag12
aa(lp1701
g2
ag48
ag71
ag12
aa(lp1702
g2
ag129
ag36
ag63
ag71
ag12
aa(lp1703
g2
ag301
ag65
ag285
ag12
aa(lp1704
g2
ag63
ag193
ag12
aa(lp1705
g2
ag87
ag41
ag173
ag12
aa(lp1706
g2
ag53
ag58
ag136
ag12
aa(lp1707
g2
ag38
ag33
ag31
ag36
ag12
aa(lp1708
g2
ag60
ag26
ag12
aa(lp1709
g2
ag22
ag41
ag10
ag12
aa(lp1710
g2
ag113
ag55
ag126
ag12
aa(lp1711
g2
ag152
ag46
ag133
ag12
aa(lp1712
g2
ag275
ag188
ag29
ag31
ag12
aa(lp1713
g2
ag63
ag214
ag12
aa(lp1714
g2
ag131
ag182
ag8
ag26
ag12
aa(lp1715
g2
ag149
ag106
ag12
aa(lp1716
g2
ag322
ag63
ag182
ag316
ag122
ag12
aa(lp1717
g2
ag422
ag162
ag17
ag12
aa(lp1718
g2
ag129
ag222
ag193
ag12
aa(lp1719
g2
ag290
ag219
ag8
ag12
aa(lp1720
g2
ag322
ag188
ag94
ag173
ag85
ag12
aa(lp1721
g2
ag188
ag6
ag152
ag12
aa(lp1722
g2
ag139
ag322
ag188
ag171
ag31
ag53
ag12
aa(lp1723
g2
ag171
ag63
ag38
ag141
ag149
ag146
ag12
aa(lp1724
g2
ag44
ag46
ag51
ag12
aa(lp1725
g2
ag113
ag41
ag237
ag81
ag12
aa(lp1726
g2
ag44
ag46
ag51
ag12
aa(lp1727
g2
ag171
ag149
ag12
aa(lp1728
g2
ag296
ag188
ag36
ag12
aa(lp1729
g2
ag146
ag162
ag91
ag12
aa(lp1730
g2
ag149
ag12
aa(lp1731
g2
ag152
ag205
ag136
ag96
ag214
ag12
aa(lp1732
g2
ag563
ag38
ag63
ag173
ag182
ag17
ag12
aa(lp1733
g2
ag44
ag111
ag8
ag17
ag22
ag87
ag12
aa(lp1734
g2
ag60
ag71
ag12
aa(lp1735
g2
ag146
ag53
ag10
ag152
ag12
aa(lp1736
g2
ag351
ag158
ag53
ag26
ag19
ag12
aa(lp1737
g2
ag146
ag26
ag237
ag12
aa(lp1738
g2
ag38
ag63
ag83
ag219
ag12
aa(lp1739
g2
ag563
ag149
ag87
ag89
ag12
aa(lp1740
g2
ag6
ag12
aa(lp1741
g2
ag38
ag67
ag26
ag219
ag89
ag12
aa(lp1742
g2
ag222
ag83
ag12
aa(lp1743
g2
ag44
ag162
ag12
aa(lp1744
g2
ag94
ag131
ag65
ag31
ag17
ag22
ag12
aa(lp1745
g2
ag38
ag152
ag318
ag65
ag133
ag12
aa(lp1746
g2
ag26
ag8
ag12
aa(lp1747
g2
ag26
ag8
ag12
aa(lp1748
g2
ag38
ag152
ag318
ag65
ag133
ag12
aa(lp1749
g2
ag10
ag167
ag12
aa(lp1750
g2
ag38
ag12
aa(lp1751
g2
ag38
ag12
aa(lp1752
g2
ag31
ag10
ag12
aa(lp1753
g2
ag94
ag222
ag44
ag85
ag12
aa(lp1754
g2
ag186
ag94
ag12
aa(lp1755
g2
ag44
ag83
ag96
ag12
aa(lp1756
g2
ag31
ag167
ag12
aa(lp1757
g2
ag38
ag12
aa(lp1758
g2
ag38
ag1278
ag12
aa(lp1759
g2
ag171
ag83
ag141
ag10
ag12
aa(lp1760
g2
ag38
ag1278
ag12
aa(lp1761
g2
ag94
ag182
ag44
ag85
ag12
aa(lp1762
g2
ag31
ag17
ag12
aa(lp1763
g2
ag290
ag24
ag81
ag12
aa(lp1764
g2
ag102
ag12
aa(lp1765
g2
ag38
ag63
ag182
ag22
ag12
aa(lp1766
g2
ag29
ag17
ag10
ag12
aa(lp1767
g2
ag10
ag41
ag12
aa(lp1768
g2
ag31
ag33
ag12
aa(lp1769
g2
ag31
ag46
ag83
ag162
ag87
ag12
aa(lp1770
g2
ag76
ag89
ag46
ag65
ag12
aa(lp1771
g2
ag44
ag12
aa(lp1772
g2
ag22
ag41
ag10
ag58
ag214
ag167
ag12
aa(lp1773
g2
ag63
ag87
ag12
aa(lp1774
g2
ag186
ag322
ag12
aa(lp1775
g2
ag117
ag17
ag12
aa(lp1776
g2
ag31
ag33
ag12
aa(lp1777
g2
ag38
ag83
ag193
ag22
ag12
aa(lp1778
g2
ag131
ag83
ag12
aa(lp1779
g2
ag177
ag141
ag146
ag10
ag111
ag51
ag108
ag12
aa(lp1780
g2
ag31
ag12
aa(lp1781
g2
ag38
ag152
ag12
aa(lp1782
g2
ag94
ag214
ag44
ag12
aa(lp1783
g2
ag6
ag33
ag44
ag12
aa(lp1784
g2
ag154
ag162
ag58
ag31
ag96
ag91
ag12
aa(lp1785
g2
ag102
ag12
aa(lp1786
g2
ag165
ag36
ag167
ag31
ag83
ag136
ag85
ag193
ag152
ag98
ag10
ag12
aa(lp1787
g2
ag44
ag81
ag12
aa(lp1788
g2
ag129
ag36
ag63
ag44
ag53
ag87
ag386
ag12
aa(lp1789
g2
ag38
ag33
ag29
ag83
ag17
ag152
ag53
ag10
ag136
ag133
ag165
ag12
aa(lp1790
g2
ag94
ag131
ag301
ag46
ag12
aa(lp1791
g2
ag38
ag12
aa(lp1792
g2
ag131
ag94
ag209
ag12
aa(lp1793
g2
ag63
ag71
ag73
ag12
aa(lp1794
g2
ag29
ag65
ag129
ag12
aa(lp1795
g2
ag31
ag33
ag12
aa(lp1796
g2
ag165
ag129
ag167
ag131
ag222
ag133
ag29
ag31
ag108
ag149
ag17
ag12
aa(lp1797
g2
ag31
ag22
ag87
ag12
aa(lp1798
g2
ag63
ag65
ag91
ag12
aa(lp1799
g2
ag6
ag65
ag12
aa(lp1800
g2
ag94
ag31
ag12
aa(lp1801
g2
ag186
ag12
aa(lp1802
g2
ag129
ag214
ag94
ag222
ag67
ag26
ag106
ag19
ag12
aa(lp1803
g2
ag129
ag214
ag94
ag222
ag67
ag26
ag106
ag19
ag12
aa(lp1804
g2
ag146
ag237
ag167
ag214
ag12
aa(lp1805
g2
ag36
ag167
ag31
ag29
ag83
ag17
ag12
aa(lp1806
g2
ag10
ag201
ag58
ag162
ag12
aa(lp1807
g2
ag131
ag133
ag83
ag12
aa(lp1808
g2
ag36
ag167
ag31
ag12
aa(lp1809
g2
ag60
ag26
ag12
aa(lp1810
g2
ag31
ag85
ag87
ag76
ag12
aa(lp1811
g2
ag129
ag63
ag83
ag22
ag12
aa(lp1812
g2
ag36
ag167
ag31
ag12
aa(lp1813
g2
ag10
ag12
aa(lp1814
g2
ag87
ag41
ag12
aa(lp1815
g2
ag17
ag12
aa(lp1816
g2
ag113
ag201
ag58
ag162
ag167
ag91
ag12
aa(lp1817
g2
ag15
ag131
ag10
ag1237
ag12
aa(lp1818
g2
ag38
ag33
ag29
ag83
ag17
ag152
ag53
ag10
ag136
ag133
ag165
ag12
aa(lp1819
g2
ag44
ag12
aa(lp1820
g2
ag296
ag129
ag31
ag46
ag17
ag149
ag146
ag12
aa(lp1821
g2
ag38
ag12
aa(lp1822
g2
ag44
ag17
ag53
ag813
ag126
ag12
aa(lp1823
g2
ag525
ag290
ag318
ag237
ag12
aa(lp1824
g2
ag188
ag36
ag129
ag12
aa(lp1825
g2
ag131
ag222
ag48
ag26
ag78
ag162
ag12
aa(lp1826
g2
ag94
ag36
ag283
ag87
ag12
aa(lp1827
g2
ag400
ag124
ag71
ag108
ag12
aa(lp1828
g2
ag63
ag44
ag71
ag73
ag12
aa(lp1829
g2
ag117
ag12
aa(lp1830
g2
ag222
ag131
ag17
ag22
ag12
aa(lp1831
g2
ag131
ag83
ag141
ag12
aa(lp1832
g2
ag476
ag162
ag91
ag12
aa(lp1833
g2
ag31
ag83
ag12
aa(lp1834
g2
ag44
ag12
aa(lp1835
g2
ag6
ag12
aa(lp1836
g2
ag139
ag165
ag38
ag83
ag26
ag78
ag12
aa(lp1837
g2
ag71
ag33
ag12
aa(lp1838
g2
ag85
ag10
ag12
aa(lp1839
g2
ag422
ag237
ag73
ag87
ag12
aa(lp1840
g2
ag152
ag53
ag12
aa(lp1841
g2
ag87
ag98
ag10
ag777
ag199
ag33
ag31
ag29
ag81
ag48
ag36
ag12
aa(lp1842
g2
ag17
ag12
aa(lp1843
g2
ag152
ag87
ag76
ag12
aa(lp1844
g2
ag131
ag476
ag55
ag12
aa(lp1845
g2
ag38
ag12
aa(lp1846
g2
ag17
ag162
ag12
aa(lp1847
g2
ag29
ag6
ag12
aa(lp1848
g2
ag31
ag33
ag12
aa(lp1849
g2
ag83
ag173
ag33
ag12
aa(lp1850
g2
ag87
ag69
ag136
ag283
ag12
aa(lp1851
g2
ag316
ag205
ag136
ag46
ag12
aa(lp1852
g2
ag48
ag592
ag69
ag12
aa(lp1853
g2
ag165
ag38
ag177
ag12
aa(lp1854
g2
ag102
ag141
ag12
aa(lp1855
g2
ag71
ag33
ag12
aa(lp1856
g2
ag188
ag29
ag17
ag149
ag10
ag12
aa(lp1857
g2
ag102
ag29
ag83
ag53
ag12
aa(lp1858
g2
ag193
ag237
ag12
aa(lp1859
g2
ag38
ag117
ag17
ag12
aa(lp1860
g2
ag38
ag12
aa(lp1861
g2
ag182
ag149
ag12
aa(lp1862
g2
ag63
ag149
ag91
ag239
ag12
aa(lp1863
g2
ag15
ag63
ag108
ag12
aa(lp1864
g2
ag48
ag167
ag214
ag285
ag12
aa(lp1865
g2
ag165
ag53
ag12
aa(lp1866
g2
ag83
ag44
ag12
aa(lp1867
g2
ag314
ag87
ag203
ag12
aa(lp1868
g2
ag38
ag17
ag318
ag8
ag12
aa(lp1869
g2
ag83
ag17
ag53
ag73
ag33
ag12
aa(lp1870
g2
ag76
ag257
ag41
ag24
ag81
ag102
ag12
aa(lp1871
g2
ag17
ag12
aa(lp1872
g2
ag149
ag12
aa(lp1873
g2
ag26
ag318
ag173
ag12
aa(lp1874
g2
ag63
ag71
ag12
aa(lp1875
g2
ag63
ag31
ag46
ag58
ag117
ag69
ag476
ag152
ag55
ag12
aa(lp1876
g2
ag10
ag173
ag12
aa(lp1877
g2
ag129
ag131
ag133
ag182
ag83
ag12
aa(lp1878
g2
ag36
ag31
ag152
ag12
aa(lp1879
g2
ag129
ag63
ag81
ag818
ag382
ag219
ag777
ag87
ag12
aa(lp1880
g2
ag141
ag17
ag476
ag58
ag12
aa(lp1881
g2
ag36
ag182
ag48
ag26
ag12
aa(lp1882
g2
ag94
ag131
ag12
aa(lp1883
g2
ag94
ag10
ag12
aa(lp1884
g2
ag83
ag133
ag12
aa(lp1885
g2
ag10
ag53
ag12
aa(lp1886
g2
ag131
ag44
ag12
aa(lp1887
g2
ag120
ag87
a(ipoint
Point
p1888
(dp1889
g4
I13
sg5
I20
sbag205
ag12
aa(lp1890
g2
ag102
ag141
ag12
aa(lp1891
g2
ag36
ag12
aa(lp1892
g2
ag94
ag44
ag71
ag12
aa(lp1893
g2
ag44
ag12
aa(lp1894
g2
ag17
ag10
ag12
aa(lp1895
g2
ag131
ag182
ag83
ag12
aa(lp1896
g2
ag87
ag41
ag58
ag19
ag12
aa(lp1897
g2
ag94
ag301
ag12
aa(lp1898
g2
ag94
ag44
ag71
ag12
aa(lp1899
g2
ag296
ag188
ag182
ag102
ag76
ag12
aa(lp1900
g2
ag139
ag38
ag422
ag154
ag12
aa(lp1901
g2
ag275
ag53
ag12
aa(lp1902
g2
ag193
ag33
ag12
aa(lp1903
g2
ag38
ag12
aa(lp1904
g2
ag131
ag301
ag83
ag12
aa(lp1905
g2
ag48
ag33
ag71
ag12
aa(lp1906
g2
ag131
ag12
aa(lp1907
g2
ag117
ag162
ag12
aa(lp1908
g2
ag60
ag26
ag12
aa(lp1909
g2
ag17
ag162
ag12
aa(lp1910
g2
ag48
ag29
ag63
ag38
ag12
aa(lp1911
g2
ag165
ag38
ag173
ag58
ag136
ag12
aa(lp1912
g2
ag129
ag63
ag81
ag818
ag382
ag219
ag777
ag87
ag12
aa(lp1913
g2
ag139
ag188
ag171
ag65
ag31
ag85
ag22
ag146
ag87
ag89
ag386
ag12
aa(lp1914
g2
ag38
ag162
ag117
ag149
ag285
ag12
aa(lp1915
g2
ag44
ag12
aa(lp1916
g2
ag38
ag81
ag222
ag12
aa(lp1917
g2
ag38
ag117
ag44
ag314
ag12
aa(lp1918
g2
ag129
ag6
ag73
ag835
ag12
aa(lp1919
g2
ag38
ag63
ag133
ag12
aa(lp1920
g2
ag71
ag162
ag19
ag12
aa(lp1921
g2
ag87
ag73
ag12
aa(lp1922
g2
ag31
ag29
ag44
ag83
ag69
ag41
ag22
ag12
aa(lp1923
g2
ag182
ag46
ag44
ag10
ag12
aa(lp1924
g2
ag17
ag162
ag12
aa(lp1925
g2
ag275
ag31
ag53
ag12
aa(lp1926
g2
ag165
ag38
ag44
ag133
ag12
aa(lp1927
g2
ag422
ag12
aa(lp1928
g2
ag188
ag44
ag85
ag12
aa(lp1929
g2
ag67
ag17
ag237
ag6
ag12
aa(lp1930
g2
ag17
ag111
ag58
ag162
ag19
ag12
aa(lp1931
g2
ag102
ag12
aa(lp1932
g2
ag239
ag275
ag171
ag12
aa(lp1933
g2
ag73
ag12
aa(lp1934
g2
ag322
ag188
ag94
ag31
ag17
ag12
aa(lp1935
g2
ag38
ag12
aa(lp1936
g2
ag131
ag141
ag12
aa(lp1937
g2
ag141
ag146
ag318
ag111
ag46
ag133
ag12
aa(lp1938
g2
ag29
ag141
ag22
ag158
ag87
ag12
aa(lp1939
g2
ag44
ag12
aa(lp1940
g2
ag36
ag167
ag12
aa(lp1941
g2
ag171
ag17
ag12
aa(lp1942
g2
ag165
ag129
ag63
ag44
ag85
ag122
ag22
ag98
ag12
aa(lp1943
g2
ag165
ag129
ag63
ag44
ag85
ag122
ag22
ag98
ag12
aa(lp1944
g2
ag120
ag152
ag41
ag209
ag12
aa(lp1945
g2
ag94
ag222
ag26
ag201
ag12
aa(lp1946
g2
ag38
ag31
ag17
ag22
ag12
aa(lp1947
g2
ag44
ag83
ag113
ag12
aa(lp1948
g2
ag117
ag12
aa(lp1949
g2
ag182
ag29
ag31
ag33
ag108
ag12
aa(lp1950
g2
ag63
ag400
ag12
aa(lp1951
g2
ag146
ag122
ag124
ag58
ag173
ag290
ag89
ag12
aa(lp1952
g2
ag94
ag29
ag31
ag12
aa(lp1953
g2
ag44
ag12
aa(lp1954
g2
ag53
ag318
ag8
ag12
aa(lp1955
g2
ag149
ag12
aa(lp1956
g2
ag94
ag102
ag12
aa(lp1957
g2
ag31
ag63
ag38
ag214
ag167
ag96
ag65
ag48
ag182
ag67
ag525
ag73
ag1237
ag777
ag146
ag129
ag285
ag12
aa(lp1958
g2
ag63
ag31
ag193
ag152
ag22
ag12
aa(lp1959
g2
ag85
ag58
ag108
ag12
aa(lp1960
g2
ag63
ag12
aa(lp1961
g2
ag17
ag12
aa(lp1962
g2
ag44
ag111
ag29
ag133
ag12
aa(lp1963
g2
ag83
ag8
ag51
ag65
ag12
aa(lp1964
g2
ag6
ag17
ag12
aa(lp1965
g2
ag131
ag31
ag12
aa(lp1966
g2
ag38
ag29
ag51
ag12
aa(lp1967
g2
ag222
ag31
ag152
ag12
aa(lp1968
g2
ag182
ag46
ag6
ag12
aa(lp1969
g2
ag76
ag257
ag1039
ag126
ag12
aa(lp1970
g2
ag31
ag81
ag167
ag12
aa(lp1971
g2
ag31
ag81
ag167
ag12
aa(lp1972
g2
ag94
ag36
ag12
aa(lp1973
g2
ag1278
ag78
ag314
ag58
ag12
aa(lp1974
g2
ag10
ag111
ag12
aa(lp1975
g2
ag48
ag31
ag19
ag12
aa(lp1976
g2
ag83
ag58
ag167
ag12
aa(lp1977
g2
ag31
ag29
ag17
ag12
aa(lp1978
g2
ag38
ag33
ag162
ag12
aa(lp1979
g2
ag38
ag46
ag17
ag12
aa(lp1980
g2
ag6
ag17
ag12
aa(lp1981
g2
ag63
ag71
ag12
aa(lp1982
g2
ag6
ag12
aa(lp1983
g2
ag6
ag12
aa(lp1984
g2
ag36
ag31
ag12
aa(lp1985
g2
ag165
ag167
ag133
ag22
ag12
aa(lp1986
g2
ag322
ag186
ag31
ag22
ag12
aa(lp1987
g2
ag131
ag17
ag646
ag327
ag87
ag12
aa(lp1988
g2
ag129
ag131
ag31
ag83
ag26
ag12
aa(lp1989
g2
ag63
ag31
ag53
ag87
ag12
aa(lp1990
g2
ag83
ag46
ag12
aa(lp1991
g2
ag188
ag31
ag85
ag12
aa(lp1992
g2
ag38
ag83
ag85
ag525
ag12
aa(lp1993
g2
ag60
ag207
ag384
a(ipoint
Point
p1994
(dp1995
g4
I15
sg5
I18
sbag12
aa(lp1996
g2
ag31
ag63
ag38
ag214
ag167
ag96
ag65
ag48
ag182
ag67
ag525
ag73
ag1237
ag777
ag146
ag129
ag285
ag12
aa(lp1997
g2
ag87
ag41
ag12
aa(lp1998
g2
ag275
ag36
ag63
ag22
ag12
aa(lp1999
g2
ag22
ag122
ag85
ag53
ag813
ag69
ag58
ag111
ag173
ag33
ag167
ag36
ag12
aa(lp2000
g2
ag188
ag85
ag113
ag12
aa(lp2001
g2
ag327
ag22
ag160
ag53
ag813
ag290
ag111
ag29
ag173
ag94
ag301
ag12
aa(lp2002
g2
ag94
ag301
ag12
aa(lp2003
g2
ag63
ag108
ag141
ag177
ag152
ag10
ag709
ag12
aa(lp2004
g2
ag60
ag26
ag12
aa(lp2005
g2
ag17
ag12
aa(lp2006
g2
ag29
ag182
ag108
ag12
aa(lp2007
g2
ag102
ag6
ag46
ag12
aa(lp2008
g2
ag275
ag171
ag85
ag12
aa(lp2009
g2
ag102
ag17
ag136
ag87
ag400
ag12
aa(lp2010
g2
ag36
ag63
ag17
ag318
ag476
ag136
ag12
aa(lp2011
g2
ag38
ag71
ag17
ag12
aa(lp2012
g2
ag31
ag81
ag85
ag12
aa(lp2013
g2
ag22
ag122
ag85
ag53
ag813
ag69
ag58
ag111
ag173
ag33
ag167
ag36
ag12
aa(lp2014
g2
ag222
ag94
ag12
aa(lp2015
g2
ag182
ag83
ag162
ag12
aa(lp2016
g2
ag182
ag83
ag162
ag12
aa(lp2017
g2
ag63
ag71
ag12
aa(lp2018
g2
ag71
ag12
aa(lp2019
g2
ag290
ag24
ag8
ag12
aa(lp2020
g2
ag48
ag65
ag12
aa(lp2021
g2
ag188
ag12
aa(lp2022
g2
ag186
ag85
ag91
ag12
aa(lp2023
g2
ag6
ag136
ag65
ag12
aa(lp2024
g2
ag36
ag12
aa(lp2025
g2
ag165
ag36
ag167
ag29
ag81
ag31
ag33
ag38
ag149
ag152
ag193
ag85
ag476
ag17
ag10
ag98
ag12
aa(lp2026
g2
ag38
ag44
ag12
aa(lp2027
g2
ag94
ag222
ag44
ag17
ag113
ag12
aa(lp2028
g2
ag44
ag173
ag12
aa(lp2029
g2
ag188
ag29
ag111
ag17
ag149
ag162
ag12
aa(lp2030
g2
ag131
ag182
ag83
ag12
aa(lp2031
g2
ag94
ag29
ag12
aa(lp2032
g2
ag26
ag12
aa(lp2033
g2
ag182
ag48
ag219
ag78
ag12
aa(lp2034
g2
ag85
ag69
ag44
ag46
ag167
ag12
aa(lp2035
g2
ag17
ag386
ag731
ag12
aa(lp2036
g2
ag76
ag108
ag31
ag46
ag182
ag133
ag12
aa(lp2037
g2
ag44
ag12
aa(lp2038
g2
ag17
ag136
ag65
ag91
ag12
aa(lp2039
g2
ag165
ag182
ag12
aa(lp2040
g2
ag6
ag58
ag71
ag12
aa(lp2041
g2
ag17
ag12
aa(lp2042
g2
ag87
ag106
ag51
ag12
aa(lp2043
g2
ag422
ag162
ag108
ag129
ag131
ag65
ag81
ag8
ag476
ag26
ag76
a(ipoint
Point
p2044
(dp2045
g4
I1
sg5
I24
sba(ipoint
Point
p2046
(dp2047
g4
I1
sg5
I26
sbag598
ag731
ag12
aa(lp2048
g2
ag83
ag46
ag173
ag12
aa(lp2049
g2
ag26
ag8
ag12
aa(lp2050
g2
ag131
ag141
ag12
aa(lp2051
g2
ag17
ag12
aa(lp2052
g2
ag193
ag41
ag10
ag283
ag12
aa(lp2053
g2
ag87
ag24
ag111
ag12
aa(lp2054
g2
ag165
ag63
ag31
ag48
ag152
ag98
ag10
ag12
aa(lp2055
g2
ag384
ag12
aa(lp2056
g2
ag296
ag141
ag10
ag133
ag12
aa(lp2057
g2
ag384
ag26
ag290
ag8
ag12
aa(lp2058
g2
ag10
ag41
ag58
ag19
ag12
aa(lp2059
g2
ag131
ag141
ag12
aa(lp2060
g2
ag129
ag214
ag167
ag65
ag182
ag31
ag63
ag149
ag152
ag193
ag41
ag205
ag10
ag73
ag285
ag348
ag12
aa(lp2061
g2
ag71
ag33
ag12
aa(lp2062
g2
ag17
ag12
aa(lp2063
g2
ag44
ag12
aa(lp2064
g2
ag87
ag835
ag12
aa(lp2065
g2
ag44
ag12
aa(lp2066
g2
ag94
ag83
ag44
ag91
ag12
aa(lp2067
g2
ag29
ag81
ag51
ag111
ag44
ag12
aa(lp2068
g2
ag102
ag152
ag111
ag81
ag29
ag12
aa(lp2069
g2
ag149
ag12
aa(lp2070
g2
ag149
ag12
aa(lp2071
g2
ag94
ag6
ag285
ag12
aa(lp2072
g2
ag152
ag69
ag318
ag136
ag237
ag162
ag19
ag12
aa(lp2073
g2
ag182
ag83
ag44
ag237
ag12
aa(lp2074
g2
ag36
ag65
ag73
ag12
aa(lp2075
g2
ag94
ag133
ag476
ag41
ag12
aa(lp2076
g2
ag182
ag31
ag63
ag87
ag12
aa(lp2077
g2
ag165
ag63
ag46
ag219
ag12
aa(lp2078
g2
ag131
ag12
aa(lp2079
g2
ag10
ag24
ag46
ag38
ag12
aa(lp2080
g2
ag188
ag31
ag81
ag85
ag12
aa(lp2081
g2
ag131
ag301
ag193
ag12
aa(lp2082
g2
ag87
ag209
ag12
aa(lp2083
g2
ag131
ag133
ag83
ag141
ag12
aa(lp2084
g2
ag38
ag173
ag81
ag167
ag214
ag85
ag152
ag22
ag12
aa(lp2085
g2
ag117
ag12
aa(lp2086
g2
ag290
ag12
aa(lp2087
g2
ag31
ag12
aa(lp2088
g2
ag31
ag17
ag12
aa(lp2089
g2
ag384
ag160
ag124
ag12
aa(lp2090
g2
ag17
ag71
ag12
aa(lp2091
g2
ag94
ag83
ag44
ag91
ag12
aa(lp2092
g2
ag131
ag12
aa(lp2093
g2
ag117
ag12
aa(lp2094
g2
ag152
ag124
ag6
ag58
ag46
ag133
ag165
ag12
aa(lp2095
g2
ag38
ag63
ag46
ag17
ag12
aa(lp2096
g2
ag38
ag17
ag8
ag12
aa(lp2097
g2
ag188
ag63
ag12
aa(lp2098
g2
ag26
ag8
ag65
ag12
aa(lp2099
g2
ag38
ag81
ag12
aa(lp2100
g2
ag36
ag31
ag12
aa(lp2101
g2
ag193
ag122
ag71
ag162
ag12
aa(lp2102
g2
ag149
ag12
aa(lp2103
g2
ag141
ag152
ag46
ag96
ag12
aa(lp2104
g2
ag182
ag149
ag177
ag12
aa(lp2105
g2
ag6
ag8
ag12
aa(lp2106
g2
ag36
ag12
aa(lp2107
g2
ag63
ag17
ag136
ag12
aa(lp2108
g2
ag131
ag83
ag12
aa(lp2109
g2
ag165
ag141
ag318
ag12
aa(lp2110
g2
ag63
ag31
ag46
ag117
ag149
ag12
aa(lp2111
g2
ag31
ag12
aa(lp2112
g2
ag17
ag58
ag111
ag173
ag167
ag214
ag12
aa(lp2113
g2
ag38
ag31
ag51
ag17
ag12
aa(lp2114
g2
ag182
ag146
ag154
ag12
aa(lp2115
g2
ag10
ag41
ag237
ag58
ag46
ag167
ag129
ag12
aa(lp2116
g2
ag117
ag12
aa(lp2117
g2
ag146
ag122
ag12
aa(lp2118
g2
ag44
ag12
aa(lp2119
g2
ag182
ag48
ag65
ag12
aa(lp2120
g2
ag22
ag87
ag290
ag8
ag12
aa(lp2121
g2
ag188
ag322
ag12
aa(lp2122
g2
ag351
ag1039
ag87
ag314
ag12
aa(lp2123
g2
ag129
ag214
ag167
ag65
ag182
ag83
ag58
ag237
ag149
ag152
ag193
ag41
ag205
ag10
ag73
ag285
ag348
ag12
aa(lp2124
g2
ag85
ag111
ag8
ag65
ag94
ag12
aa(lp2125
g2
ag102
ag709
ag12
aa(lp2126
g2
ag102
ag709
ag188
ag29
ag85
ag87
ag12
aa(lp2127
g2
ag36
ag12
aa(lp2128
g2
ag22
ag160
ag476
ag71
ag65
ag12
aa(lp2129
g2
ag131
ag12
aa(lp2130
g2
ag117
ag12
aa(lp2131
g2
ag22
ag41
ag58
ag173
ag33
ag94
ag96
ag133
ag12
aa(lp2132
g2
ag26
ag290
ag8
ag12
aa(lp2133
g2
ag182
ag818
ag384
ag12
aa(lp2134
g2
ag113
ag87
ag41
ag17
ag44
ag31
ag167
ag133
ag12
aa(lp2135
g2
ag31
ag209
ag12
aa(lp2136
g2
ag15
ag63
ag244
ag12
aa(lp2137
g2
ag38
ag31
ag149
ag87
ag12
aa(lp2138
g2
ag182
ag193
ag285
ag12
aa(lp2139
g2
ag44
ag12
aa(lp2140
g2
ag102
ag12
aa(lp2141
g2
ag301
ag48
ag177
ag12
aa(lp2142
g2
ag322
ag44
ag83
ag290
ag12
aa(lp2143
g2
ag384
ag8
ag108
ag12
aa(lp2144
g2
ag219
ag162
ag91
ag12
aa(lp2145
g2
ag17
ag12
aa(lp2146
g2
ag6
ag17
ag85
ag12
aa(lp2147
g2
ag38
ag46
ag60
ag12
aa(lp2148
g2
ag29
ag182
ag44
ag12
aa(lp2149
g2
ag102
ag12
aa(lp2150
g2
ag17
ag12
aa(lp2151
g2
ag182
ag31
ag12
aa(lp2152
g2
ag384
ag69
ag12
aa(lp2153
g2
ag182
ag60
ag108
ag12
aa(lp2154
g2
ag177
ag17
ag67
ag8
ag108
ag12
aa(lp2155
g2
ag17
ag318
ag8
ag46
ag31
ag108
ag19
ag12
aa(lp2156
g2
ag322
ag188
ag85
ag12
aa(lp2157
g2
ag60
ag207
ag384
ag1994
ag12
aa(lp2158
g2
ag67
ag106
ag162
ag12
aa(lp2159
g2
ag71
ag12
aa(lp2160
g2
ag44
ag152
ag12
aa(lp2161
g2
ag15
ag131
ag129
ag12
aa(lp2162
g2
ag177
ag113
ag314
ag41
ag12
aa(lp2163
g2
ag38
ag44
ag8
ag26
ag12
aa(lp2164
g2
ag351
a(ipoint
Point
p2165
(dp2166
g4
I3
sg5
I18
sbag87
ag777
ag124
ag69
ag111
ag29
ag19
ag12
aa(lp2167
g2
ag31
ag182
ag73
ag91
ag239
ag12
aa(lp2168
g2
ag139
ag275
ag171
ag12
aa(lp2169
g2
ag102
ag38
ag117
ag44
ag69
ag476
ag41
ag122
ag55
ag120
ag154
ag87
ag10
ag65
ag133
ag91
ag12
aa(lp2170
g2
ag44
ag152
ag12
aa(lp2171
g2
ag139
ag275
ag171
ag12
aa(lp2172
g2
ag44
ag17
ag108
ag19
ag12
aa(lp2173
g2
ag38
ag17
ag12
aa(lp2174
g2
ag44
ag22
ag87
ag12
aa(lp2175
g2
ag188
ag29
ag31
ag44
ag87
ag12
aa(lp2176
g2
ag188
ag322
ag12
aa(lp2177
g2
ag177
ag71
ag67
ag12
aa(lp2178
g2
ag239
ag38
ag152
ag193
ag81
ag12
aa(lp2179
g2
ag85
ag318
ag69
ag44
ag173
ag167
ag214
ag12
aa(lp2180
g2
ag129
a(ipoint
Point
p2181
(dp2182
g4
I1
sg5
I6
sbag12
aa(lp2183
g2
ag63
ag71
ag12
aa(lp2184
g2
ag38
ag12
aa(lp2185
g2
ag131
ag182
ag83
ag12
aa(lp2186
g2
ag31
ag12
aa(lp2187
g2
ag149
ag12
aa(lp2188
g2
ag6
ag17
ag12
aa(lp2189
g2
ag182
ag67
ag26
ag12
aa(lp2190
g2
ag94
ag131
ag301
ag12
aa(lp2191
g2
ag129
ag36
ag182
ag67
ag26
ag219
ag12
aa(lp2192
g2
ag117
ag63
ag12
aa(lp2193
g2
ag60
ag26
ag78
ag12
aa(lp2194
g2
ag422
ag46
ag81
ag12
aa(lp2195
g2
ag177
ag111
ag8
ag29
ag12
aa(lp2196
g2
ag87
ag162
ag111
ag12
aa(lp2197
g2
ag44
ag83
ag46
ag12
aa(lp2198
g2
ag384
ag1994
ag219
ag108
ag12
aa(lp2199
g2
ag71
ag33
ag12
aa(lp2200
g2
ag44
ag12
aa(lp2201
g2
ag83
ag8
ag46
ag12
aa(lp2202
g2
ag44
ag12
aa(lp2203
g2
ag22
ag12
aa(lp2204
g2
ag186
ag12
aa(lp2205
g2
ag83
ag12
aa(lp2206
g2
ag322
ag188
ag167
ag173
ag48
ag298
ag12
aa(lp2207
g2
ag31
ag12
aa(lp2208
g2
ag38
ag12
aa(lp2209
g2
ag296
ag141
ag12
aa(lp2210
g2
ag38
ag12
aa(lp2211
g2
ag129
ag36
ag167
ag29
ag173
ag149
ag12
aa(lp2212
g2
ag6
ag12
aa(lp2213
g2
ag38
ag17
ag10
ag98
ag731
ag12
aa(lp2214
g2
ag48
ag65
ag301
ag12
aa(lp2215
g2
ag6
ag17
ag12
aa(lp2216
g2
ag38
ag12
aa(lp2217
g2
ag131
ag133
ag46
ag111
ag12
aa(lp2218
g2
ag63
ag29
ag44
ag53
ag12
aa(lp2219
g2
ag38
ag63
ag31
ag120
ag12
aa(lp2220
g2
ag38
ag12
aa(lp2221
g2
ag10
ag106
ag237
ag12
aa(lp2222
g2
ag117
ag162
ag38
ag91
ag12
aa(lp2223
g2
ag182
ag51
ag12
aa(lp2224
g2
ag22
ag646
ag173
ag65
ag12
aa(lp2225
g2
ag6
ag12
aa(lp2226
g2
ag400
ag126
ag162
ag12
aa(lp2227
g2
ag154
ag53
ag10
ag85
ag17
ag58
ag162
ag33
ag31
ag81
ag167
ag36
ag91
ag12
aa(lp2228
g2
ag102
ag12
aa(lp2229
g2
ag149
ag12
aa(lp2230
g2
ag36
ag71
ag12
aa(lp2231
g2
ag139
ag38
ag48
ag154
ag12
aa(lp2232
g2
ag149
ag237
ag8
ag12
aa(lp2233
g2
ag131
ag83
ag12
aa(lp2234
g2
ag6
ag12
aa(lp2235
g2
ag131
ag12
aa(lp2236
g2
ag60
ag26
ag12
aa(lp2237
g2
ag6
ag12
aa(lp2238
g2
ag63
ag108
ag71
ag12
aa(lp2239
g2
ag26
ag8
ag12
aa(lp2240
g2
ag26
ag158
ag33
ag12
aa(lp2241
g2
ag38
ag17
ag12
aa(lp2242
g2
ag38
ag83
ag133
ag26
ag2165
ag12
aa(lp2243
g2
ag60
ag26
ag12
aa(lp2244
g2
ag171
ag129
ag38
ag71
ag87
ag12
aa(lp2245
g2
ag222
ag129
ag12
aa(lp2246
g2
ag76
ag41
ag46
ag182
ag65
ag12
aa(lp2247
g2
ag31
ag46
ag81
ag17
ag162
ag12
aa(lp2248
g2
ag22
ag58
ag167
ag222
ag12
aa(lp2249
g2
ag98
ag136
ag81
ag96
ag12
aa(lp2250
g2
ag63
ag31
ag17
ag22
ag12
aa(lp2251
g2
ag165
ag38
ag91
ag12
aa(lp2252
g2
ag38
ag117
ag17
ag71
ag12
aa(lp2253
g2
ag22
ag58
ag12
aa(lp2254
g2
ag44
ag12
aa(lp2255
g2
ag38
ag17
ag12
aa(lp2256
g2
ag186
ag171
ag182
ag108
ag12
aa(lp2257
g2
ag31
ag46
ag83
ag12
aa(lp2258
g2
a(ipoint
Point
p2259
(dp2260
g4
I1
sg5
I14
sbag124
ag237
ag58
ag83
ag60
ag65
ag36
ag17
ag98
ag1212
ag12
aa(lp2261
g2
ag38
ag117
ag98
ag12
aa(lp2262
g2
ag165
ag38
ag91
ag12
aa(lp2263
g2
ag290
ag162
ag422
ag209
ag91
ag12
aa(lp2264
g2
ag152
ag58
ag12
aa(lp2265
g2
ag17
ag173
ag12
aa(lp2266
g2
ag182
ag12
aa(lp2267
g2
ag146
ag12
aa(lp2268
g2
ag60
ag26
ag12
aa(lp2269
g2
ag87
ag19
ag96
ag12
aa(lp2270
g2
ag113
ag69
ag12
aa(lp2271
g2
ag182
ag19
ag2181
ag12
aa(lp2272
g2
ag36
ag12
aa(lp2273
g2
ag296
ag322
ag214
ag129
ag102
ag126
ag592
ag476
ag203
ag96
ag91
ag12
aa(lp2274
g2
ag182
ag12
aa(lp2275
g2
ag182
ag12
aa(lp2276
g2
ag26
ag41
ag58
ag12
aa(lp2277
g2
ag171
ag83
ag12
aa(lp2278
g2
ag83
ag46
ag38
ag12
aa(lp2279
g2
ag31
ag29
ag290
ag158
ag12
aa(lp2280
g2
ag177
ag141
ag22
ag69
ag12
aa(lp2281
g2
ag188
ag31
ag17
ag22
ag12
aa(lp2282
g2
ag129
ag96
ag85
ag152
ag12
aa(lp2283
g2
ag17
ag12
aa(lp2284
g2
ag22
ag69
ag318
ag46
ag12
aa(lp2285
g2
ag76
ag89
ag160
ag69
ag173
ag96
ag38
ag91
ag12
aa(lp2286
g2
ag22
ag160
ag33
ag12
aa(lp2287
g2
ag165
ag222
ag290
ag777
ag12
aa(lp2288
g2
ag31
ag33
ag12
aa(lp2289
g2
ag36
ag167
ag31
ag17
ag22
ag12
aa(lp2290
g2
ag31
ag17
ag12
aa(lp2291
g2
ag31
ag81
ag17
ag12
aa(lp2292
g2
ag171
ag29
ag117
ag314
ag12
aa(lp2293
g2
ag129
ag182
ag12
aa(lp2294
g2
ag31
ag33
ag12
aa(lp2295
g2
ag10
ag41
ag646
ag12
aa(lp2296
g2
ag31
ag12
aa(lp2297
g2
ag177
ag193
ag777
ag58
ag12
aa(lp2298
g2
ag6
ag17
ag12
aa(lp2299
g2
ag71
ag17
ag152
ag244
ag12
aa(lp2300
g2
ag94
ag31
ag149
ag22
ag10
ag12
aa(lp2301
g2
ag38
ag29
ag12
aa(lp2302
g2
ag44
ag12
aa(lp2303
g2
ag10
ag12
aa(lp2304
g2
ag117
ag12
aa(lp2305
g2
ag290
ag41
ag12
aa(lp2306
g2
ag1290
ag51
ag117
ag12
aa(lp2307
g2
ag31
ag46
ag48
ag67
ag71
ag149
ag152
ag146
ag1237
ag108
ag12
aa(lp2308
g2
ag131
ag301
ag17
ag162
ag12
aa(lp2309
g2
ag188
ag31
ag17
ag154
ag12
aa(lp2310
g2
ag31
ag29
ag83
ag53
ag12
aa(lp2311
g2
ag131
ag83
ag12
aa(lp2312
g2
ag10
ag318
ag12
aa(lp2313
g2
ag36
ag129
ag63
ag31
ag65
ag67
ag53
ag314
ag78
ag12
aa(lp2314
g2
ag60
ag12
aa(lp2315
g2
ag165
ag44
ag12
aa(lp2316
g2
ag275
ag165
ag29
ag85
ag12
aa(lp2317
g2
ag384
ag26
ag207
ag60
ag12
aa(lp2318
g2
ag60
ag12
aa(lp2319
g2
ag188
ag31
ag17
ag22
ag12
aa(lp2320
g2
ag322
ag12
aa(lp2321
g2
ag188
ag29
ag17
ag22
ag12
aa(lp2322
g2
ag165
ag133
ag83
ag87
ag12
aa(lp2323
g2
ag26
ag8
ag12
aa(lp2324
g2
ag131
ag63
ag38
ag12
aa(lp2325
g2
ag17
ag12
aa(lp2326
g2
ag22
ag87
ag10
ag69
ag12
aa(lp2327
g2
ag129
ag38
ag17
ag12
aa(lp2328
g2
ag60
ag12
aa(lp2329
g2
ag171
ag182
ag22
ag12
aa(lp2330
g2
ag85
ag17
ag167
ag12
aa(lp2331
g2
ag38
ag63
ag71
ag12
aa(lp2332
g2
ag63
ag73
ag12
aa(lp2333
g2
ag165
ag38
ag117
ag136
ag65
ag26
ag87
ag12
aa(lp2334
g2
ag182
ag283
ag12
aa(lp2335
g2
ag193
ag33
ag108
ag12
aa(lp2336
g2
ag188
ag322
ag146
ag12
aa(lp2337
g2
ag102
ag63
ag87
ag12
aa(lp2338
g2
ag117
ag60
ag290
ag12
aa(lp2339
g2
ag94
ag131
ag301
ag12
aa(lp2340
g2
ag94
ag131
ag31
ag19
ag12
aa(lp2341
g2
ag131
ag133
ag44
ag149
ag1142
ag12
aa(lp2342
g2
ag60
ag26
ag12
aa(lp2343
g2
ag188
ag31
ag17
ag12
aa(lp2344
g2
ag188
ag322
ag12
aa(lp2345
g2
ag102
ag12
aa(lp2346
g2
ag290
ag24
ag12
aa(lp2347
g2
ag38
ag12
aa(lp2348
g2
ag131
ag102
ag12
aa(lp2349
g2
ag38
ag17
ag12
aa(lp2350
g2
ag38
ag63
ag167
ag10
ag12
aa(lp2351
g2
ag275
ag117
ag44
ag111
ag81
ag12
aa(lp2352
g2
ag83
ag58
ag12
aa(lp2353
g2
ag44
ag67
ag12
aa(lp2354
g2
ag36
ag31
ag12
aa(lp2355
g2
ag15
ag131
ag94
ag29
ag31
ag58
ag141
ag12
aa(lp2356
g2
ag71
ag237
ag12
aa(lp2357
g2
ag44
ag12
aa(lp2358
g2
ag129
ag38
ag51
ag12
aa(lp2359
g2
ag182
ag152
ag314
ag87
ag12
aa(lp2360
g2
ag171
ag129
ag12
aa(lp2361
g2
ag83
ag58
ag167
ag12
aa(lp2362
g2
ag146
ag41
ag26
ag81
ag209
ag12
aa(lp2363
g2
ag152
ag41
ag237
ag6
ag12
aa(lp2364
g2
ag17
ag22
ag12
aa(lp2365
g2
ag31
ag38
ag12
aa(lp2366
g2
ag244
ag12
aa(lp2367
g2
ag17
ag108
ag12
aa(lp2368
g2
ag29
ag33
ag12
aa(lp2369
g2
ag6
ag12
aa(lp2370
g2
ag154
ag146
ag55
ag12
aa(lp2371
g2
ag17
ag12
aa(lp2372
g2
ag146
ag53
ag41
ag108
ag12
aa(lp2373
g2
ag63
ag46
ag51
ag193
ag12
aa(lp2374
g2
ag171
ag67
ag26
ag12
aa(lp2375
g2
ag149
ag17
ag152
ag12
aa(lp2376
g2
ag182
ag67
ag108
ag12
aa(lp2377
g2
ag63
ag71
ag12
aa(lp2378
g2
ag38
ag31
ag46
ag83
ag51
ag12
aa(lp2379
g2
ag53
ag12
aa(lp2380
g2
ag129
ag71
ag136
ag12
aa(lp2381
g2
ag400
ag87
ag158
ag33
ag12
aa(lp2382
g2
ag44
ag111
ag17
ag12
aa(lp2383
g2
ag102
ag117
ag17
ag314
ag12
aa(lp2384
g2
ag31
ag38
ag12
aa(lp2385
g2
ag85
ag318
ag8
ag96
ag214
ag12
aa(lp2386
g2
ag38
ag31
ag46
ag83
ag51
ag12
aa(lp2387
g2
ag17
ag12
aa(lp2388
g2
ag83
ag58
ag12
aa(lp2389
g2
ag38
ag17
ag53
ag314
ag78
ag12
aa(lp2390
g2
ag38
ag12
aa(lp2391
g2
ag44
ag12
aa(lp2392
g2
ag38
ag63
ag173
ag58
ag67
ag152
ag12
aa(lp2393
g2
ag38
ag33
ag173
ag29
ag44
ag71
ag22
ag12
aa(lp2394
g2
ag44
ag85
ag12
aa(lp2395
g2
ag129
ag222
ag48
ag67
ag152
ag12
aa(lp2396
g2
ag60
ag12
aa(lp2397
g2
ag29
ag44
ag12
aa(lp2398
g2
ag44
ag53
ag12
aa(lp2399
g2
ag188
ag117
ag71
ag146
ag12
aa(lp2400
g2
ag290
ag108
ag12
aa(lp2401
g2
ag85
ag58
ag162
ag167
ag12
aa(lp2402
g2
ag44
ag33
ag12
aa(lp2403
g2
ag26
ag835
ag8
ag12
aa(lp2404
g2
ag26
a(ipoint
Point
p2405
(dp2406
g4
I17
sg5
I18
sbag8
ag12
aa(lp2407
g2
ag98
ag10
ag199
ag237
ag58
ag162
ag12
aa(lp2408
g2
ag87
ag400
ag78
ag152
ag58
ag81
ag133
ag12
aa(lp2409
g2
ag6
ag12
aa(lp2410
g2
ag26
ag2405
ag8
ag12
aa(lp2411
g2
ag44
ag8
ag167
ag129
ag12
aa(lp2412
g2
ag31
ag167
ag12
aa(lp2413
g2
ag186
ag12
aa(lp2414
g2
ag38
ag6
ag152
ag12
aa(lp2415
g2
ag31
ag63
ag12
aa(lp2416
g2
ag102
ag12
aa(lp2417
g2
ag63
ag149
ag193
ag12
aa(lp2418
g2
ag102
ag108
ag29
ag17
ag12
aa(lp2419
g2
ag131
ag133
ag48
ag83
ag87
ag12
aa(lp2420
g2
ag38
ag63
ag85
ag12
aa(lp2421
g2
ag222
ag131
ag244
ag12
aa(lp2422
g2
ag17
ag10
ag12
aa(lp2423
g2
ag44
ag108
ag12
aa(lp2424
g2
ag44
ag81
ag48
ag19
ag12
aa(lp2425
g2
ag188
ag15
ag31
ag152
ag78
ag400
ag87
ag12
aa(lp2426
g2
ag165
ag283
ag17
ag314
ag12
aa(lp2427
g2
ag1140
ag12
aa(lp2428
g2
ag222
ag283
ag731
ag12
aa(lp2429
g2
ag278
ag222
ag12
aa(lp2430
g2
ag87
ag55
ag162
ag58
ag46
ag133
ag12
aa(lp2431
g2
ag222
ag131
ag177
ag12
aa(lp2432
g2
ag165
ag129
ag63
ag31
ag29
ag182
ag48
ag65
ag67
ag24
ag316
ag26
ag244
ag199
ag314
ag154
ag1039
a(ipoint
Point
p2433
(dp2434
g4
I9
sg5
I20
sbag152
ag162
ag12
aa(lp2435
g2
ag171
ag29
ag117
ag149
ag141
ag146
ag12
aa(lp2436
g2
ag94
ag133
ag10
ag12
aa(lp2437
g2
ag188
ag15
ag31
ag152
ag78
ag400
ag87
ag12
aa(lp2438
g2
ag146
ag122
ag2181
ag12
aa(lp2439
g2
ag165
ag38
ag17
ag318
ag525
ag12
aa(lp2440
g2
ag38
ag12
aa(lp2441
g2
ag165
ag129
ag63
ag193
ag12
aa(lp2442
g2
ag53
ag111
ag12
aa(lp2443
g2
ag38
ag17
ag12
aa(lp2444
g2
ag38
ag33
ag10
ag87
ag12
aa(lp2445
g2
ag85
ag53
ag133
ag12
aa(lp2446
g2
ag85
ag53
ag133
ag12
aa(lp2447
g2
ag129
ag301
ag53
ag12
aa(lp2448
g2
ag87
ag160
ag106
ag117
ag173
ag46
ag65
ag96
ag12
aa(lp2449
g2
ag15
ag29
ag173
ag12
aa(lp2450
g2
ag36
ag12
aa(lp2451
g2
ag85
ag53
ag133
ag12
aa(lp2452
g2
ag182
ag10
ag12
aa(lp2453
g2
ag10
ag55
ag108
ag19
ag12
aa(lp2454
g2
ag94
ag29
ag51
ag12
aa(lp2455
g2
ag149
ag6
ag58
ag83
ag12
aa(lp2456
g2
ag44
ag33
ag167
ag12
aa(lp2457
g2
ag290
ag24
ag8
ag12
aa(lp2458
g2
ag38
ag63
ag173
ag58
ag67
ag152
ag12
aa(lp2459
g2
ag186
ag182
ag12
aa(lp2460
g2
ag71
ag81
ag12
aa(lp2461
g2
ag36
ag85
ag12
aa(lp2462
g2
ag222
ag731
ag12
aa(lp2463
g2
ag38
ag17
ag12
aa(lp2464
g2
ag15
ag83
ag152
ag55
ag12
aa(lp2465
g2
ag83
ag8
ag46
ag12
aa(lp2466
g2
ag71
ag17
ag318
ag10
ag12
aa(lp2467
g2
ag17
ag162
ag12
aa(lp2468
g2
ag38
ag91
ag12
aa(lp2469
g2
ag131
ag133
ag29
ag141
ag12
aa(lp2470
g2
ag85
ag33
ag12
aa(lp2471
g2
ag44
ag81
ag48
ag19
ag12
aa(lp2472
g2
ag38
ag29
ag26
ag12
aa(lp2473
g2
ag44
ag113
ag12
aa(lp2474
g2
ag85
ag53
ag813
ag167
ag709
ag12
aa(lp2475
g2
ag38
ag17
ag12
aa(lp2476
g2
ag244
ag12
aa(lp2477
g2
ag31
ag46
ag17
ag12
aa(lp2478
g2
ag63
ag31
ag81
ag17
ag108
ag12
aa(lp2479
g2
ag31
ag117
ag53
ag113
ag12
aa(lp2480
g2
ag31
ag46
ag17
ag149
ag12
aa(lp2481
g2
ag17
ag22
ag12
aa(lp2482
g2
ag48
ag63
ag108
ag6
ag12
aa(lp2483
g2
ag188
ag171
ag17
ag22
ag146
ag87
ag12
aa(lp2484
g2
ag146
ag201
ag10
ag85
ag58
ag111
ag31
ag81
ag51
ag65
ag12
aa(lp2485
g2
ag31
ag17
ag12
aa(lp2486
g2
ag17
ag46
ag173
ag12
aa(lp2487
g2
ag129
ag63
ag71
ag12
aa(lp2488
g2
ag63
ag12
aa(lp2489
g2
ag44
ag46
ag133
ag12
aa(lp2490
g2
ag31
ag29
ag111
ag126
ag12
aa(lp2491
g2
ag15
ag94
ag173
ag85
ag12
aa(lp2492
g2
ag94
ag31
ag12
aa(lp2493
g2
ag63
ag73
ag12
aa(lp2494
g2
ag182
ag51
ag19
ag12
aa(lp2495
g2
ag129
ag36
ag71
ag12
aa(lp2496
g2
ag117
ag108
ag12
aa(lp2497
g2
ag38
ag12
aa(lp2498
g2
ag188
ag15
ag48
ag12
aa(lp2499
g2
ag171
ag182
ag152
ag12
aa(lp2500
g2
ag98
ag199
ag318
ag285
ag731
ag12
aa(lp2501
g2
ag102
ag29
ag592
ag316
ag12
aa(lp2502
g2
ag26
ag2405
ag835
ag8
ag12
aa(lp2503
g2
ag44
ag133
ag12
aa(lp2504
g2
ag44
ag177
ag12
aa(lp2505
g2
ag22
ag122
ag12
aa(lp2506
g2
ag15
ag17
ag124
ag177
ag12
aa(lp2507
g2
ag6
ag117
ag17
ag12
aa(lp2508
g2
ag278
ag182
ag290
ag12
aa(lp2509
g2
ag38
ag149
ag146
ag98
ag835
ag8
ag65
ag133
ag12
aa(lp2510
g2
ag26
ag87
ag78
ag12
aa(lp2511
g2
ag117
ag162
ag12
aa(lp2512
g2
ag186
ag12
aa(lp2513
g2
ag186
ag171
ag301
ag12
aa(lp2514
g2
ag177
ag22
ag122
ag146
ag201
ag10
ag41
ag237
ag58
ag33
ag38
ag167
ag12
aa(lp2515
g2
ag244
ag12
aa(lp2516
g2
ag63
ag71
ag12
aa(lp2517
g2
ag60
ag384
ag12
aa(lp2518
g2
ag38
ag63
ag46
ag149
ag12
aa(lp2519
g2
ag44
ag384
ag78
ag12
aa(lp2520
g2
ag44
ag12
aa(lp2521
g2
ag102
ag12
aa(lp2522
g2
ag63
ag67
ag12
aa(lp2523
g2
ag38
ag12
aa(lp2524
g2
ag131
ag12
aa(lp2525
g2
ag182
ag38
ag12
aa(lp2526
g2
ag322
ag63
ag113
ag12
aa(lp2527
g2
ag182
ag31
ag33
ag38
ag12
aa(lp2528
g2
ag31
ag12
aa(lp2529
g2
ag85
ag26
ag108
ag12
aa(lp2530
g2
ag290
ag8
ag12
aa(lp2531
g2
ag94
ag83
ag136
ag87
ag12
aa(lp2532
g2
ag53
ag33
ag108
ag12
aa(lp2533
g2
ag322
ag188
ag31
ag17
ag12
aa(lp2534
g2
ag44
ag113
ag12
aa(lp2535
g2
ag38
ag71
ag8
ag12
aa(lp2536
g2
ag38
ag17
ag133
ag12
aa(lp2537
g2
ag38
ag31
ag71
ag149
ag122
ag120
ag12
aa(lp2538
g2
ag149
ag237
ag8
ag12
aa(lp2539
g2
ag6
ag12
aa(lp2540
g2
ag131
ag83
ag162
ag12
aa(lp2541
g2
ag117
ag12
aa(lp2542
g2
ag31
ag17
ag709
ag731
ag12
aa(lp2543
g2
ag6
ag17
ag65
ag12
aa(lp2544
g2
ag10
ag69
ag162
ag19
ag12
aa(lp2545
g2
ag31
ag83
ag8
ag12
aa(lp2546
g2
ag17
ag12
aa(lp2547
g2
ag278
ag63
ag81
ag384
ag12
aa(lp2548
g2
ag38
ag44
ag111
ag53
ag87
ag78
ag12
aa(lp2549
g2
ag29
ag67
ag26
ag160
ag108
ag102
ag12
aa(lp2550
g2
ag71
ag17
ag33
ag12
aa(lp2551
g2
ag131
ag36
ag129
ag12
aa(lp2552
g2
ag60
ag26
ag12
aa(lp2553
g2
ag63
ag38
ag12
aa(lp2554
g2
ag6
ag126
ag12
aa(lp2555
g2
ag94
ag96
ag29
ag67
ag85
ag12
aa(lp2556
g2
ag71
ag69
ag152
ag12
aa(lp2557
g2
ag31
ag38
ag12
aa(lp2558
g2
ag131
ag182
ag108
ag12
aa(lp2559
g2
ag38
ag17
ag314
ag12
aa(lp2560
g2
ag193
ag12
aa(lp2561
g2
ag188
ag131
ag12
aa(lp2562
g2
ag44
ag46
ag167
ag12
aa(lp2563
g2
ag384
ag26
ag290
ag8
ag12
aa(lp2564
g2
ag322
ag188
ag186
ag31
ag17
ag85
ag12
aa(lp2565
g2
ag36
ag63
ag117
ag106
ag12
aa(lp2566
g2
ag63
ag108
ag173
ag58
ag12
aa(lp2567
g2
ag71
ag214
ag12
aa(lp2568
g2
ag36
ag71
ag12
aa(lp2569
g2
ag31
ag12
aa(lp2570
g2
ag22
ag69
ag12
aa(lp2571
g2
ag67
ag8
ag162
ag12
aa(lp2572
g2
ag171
ag29
ag22
ag12
aa(lp2573
g2
ag171
ag12
aa(lp2574
g2
ag31
ag33
ag108
ag12
aa(lp2575
g2
ag87
ag122
ag193
ag237
ag111
ag12
aa(lp2576
g2
ag129
ag214
ag167
ag65
ag182
ag83
ag58
ag237
ag149
ag152
ag193
ag41
ag205
ag10
ag73
ag285
ag348
ag12
aa(lp2577
g2
ag38
ag12
aa(lp2578
g2
ag31
ag81
ag65
ag83
ag85
ag12
aa(lp2579
g2
ag87
ag10
ag201
ag777
ag160
ag41
ag71
ag237
ag58
ag111
ag136
ag48
ag133
ag214
ag129
ag165
ag12
aa(lp2580
g2
ag102
ag38
ag33
ag12
aa(lp2581
g2
ag182
ag12
aa(lp2582
g2
ag26
ag290
ag8
ag12
aa(lp2583
g2
ag131
ag48
ag83
ag12
aa(lp2584
g2
ag17
ag12
aa(lp2585
g2
ag10
ag41
ag122
ag237
ag19
ag12
aa(lp2586
g2
ag146
ag777
ag10
ag525
ag41
ag318
ag207
ag136
ag111
ag58
ag173
ag29
ag81
ag167
ag214
ag129
ag285
ag12
aa(lp2587
g2
ag31
ag108
ag154
ag12
aa(lp2588
g2
ag44
ag22
ag12
aa(lp2589
g2
ag44
ag113
ag87
ag12
aa(lp2590
g2
ag129
ag36
ag31
ag63
ag17
ag65
ag12
aa(lp2591
g2
ag22
ag146
ag162
ag44
ag167
ag12
aa(lp2592
g2
ag177
ag69
ag10
ag12
aa(lp2593
g2
ag17
ag12
aa(lp2594
g2
ag44
ag53
ag12
aa(lp2595
g2
ag63
ag12
aa(lp2596
g2
ag36
ag31
ag81
ag48
ag12
aa(lp2597
g2
ag44
ag12
aa(lp2598
g2
ag129
ag71
ag12
aa(lp2599
g2
ag171
ag131
ag31
ag12
aa(lp2600
g2
ag63
ag83
ag12
aa(lp2601
g2
ag131
ag12
aa(lp2602
g2
ag44
ag83
ag33
ag12
aa(lp2603
g2
ag182
ag48
ag65
ag12
aa(lp2604
g2
ag10
ag41
ag136
ag12
aa(lp2605
g2
ag83
ag29
ag173
ag209
ag12
aa(lp2606
g2
ag94
ag182
ag8
ag10
ag12
aa(lp2607
g2
ag48
ag31
ag167
ag12
aa(lp2608
g2
ag322
ag188
ag85
ag10
ag12
aa(lp2609
g2
ag44
ag111
ag12
aa(lp2610
g2
ag22
ag87
ag318
ag46
ag12
aa(lp2611
g2
ag188
ag131
ag83
ag237
ag162
ag12
aa(lp2612
g2
ag141
ag154
ag12
aa(lp2613
g2
ag141
ag154
ag12
aa(lp2614
g2
ag149
ag33
ag108
ag46
ag65
ag26
ag87
ag12
aa(lp2615
g2
ag44
ag87
ag12
aa(lp2616
g2
ag63
ag108
ag12
aa(lp2617
g2
ag400
ag87
ag12
aa(lp2618
g2
ag301
ag65
ag31
ag6
ag152
ag12
aa(lp2619
g2
ag171
ag63
ag12
aa(lp2620
g2
ag6
ag58
ag17
ag46
ag182
ag167
ag214
ag12
aa(lp2621
g2
ag139
ag38
ag67
ag400
ag89
ag12
aa(lp2622
g2
ag44
ag12
aa(lp2623
g2
ag278
ag38
ag182
ag17
ag12
aa(lp2624
g2
ag44
ag108
ag12
aa(lp2625
g2
ag67
ag8
ag58
ag108
ag12
aa(lp2626
g2
ag31
ag12
aa(lp2627
g2
ag36
ag167
ag709
ag12
aa(lp2628
g2
ag38
ag12
aa(lp2629
g2
ag165
ag63
ag167
ag48
ag149
ag12
aa(lp2630
g2
ag322
ag188
ag31
ag17
ag22
ag12
aa(lp2631
g2
ag31
ag33
ag12
aa(lp2632
g2
ag29
ag44
ag12
aa(lp2633
g2
ag94
ag214
ag12
aa(lp2634
g2
ag71
ag209
ag12
aa(lp2635
g2
ag146
ag12
aa(lp2636
g2
ag193
ag41
ag10
ag12
aa(lp2637
g2
ag85
ag525
ag136
ag48
ag33
ag38
ag12
aa(lp2638
g2
ag17
ag12
aa(lp2639
g2
ag71
ag12
aa(lp2640
g2
ag171
ag36
ag129
ag63
ag73
ag12
aa(lp2641
g2
ag31
ag33
ag12
aa(lp2642
g2
ag44
ag22
ag12
aa(lp2643
g2
ag1212
ag89
ag162
ag91
ag12
aa(lp2644
g2
ag188
ag171
ag17
ag41
ag12
aa(lp2645
g2
ag29
ag44
ag12
aa(lp2646
g2
ag182
ag12
aa(lp2647
g2
ag182
ag12
aa(lp2648
g2
ag29
ag53
ag12
aa(lp2649
g2
ag188
ag29
ag31
ag87
ag12
aa(lp2650
g2
ag193
ag152
ag78
ag87
ag201
ag24
ag318
ag111
ag81
ag96
ag65
ag214
ag129
ag709
ag275
ag731
ag12
aa(lp2651
g2
ag71
ag237
ag12
aa(lp2652
g2
ag171
ag117
ag12
aa(lp2653
g2
ag94
ag31
ag12
aa(lp2654
g2
ag29
ag44
ag12
aa(lp2655
g2
ag31
ag17
ag22
ag12
aa(lp2656
g2
ag146
ag122
ag106
ag69
ag81
ag12
aa(lp2657
g2
ag188
ag171
ag17
ag41
ag12
aa(lp2658
g2
ag48
ag81
ag46
ag17
ag12
aa(lp2659
g2
ag36
ag31
ag12
aa(lp2660
g2
ag31
ag48
ag12
aa(lp2661
g2
ag38
ag12
aa(lp2662
g2
ag60
ag12
aa(lp2663
g2
ag22
ag87
ag10
ag167
ag12
aa(lp2664
g2
ag94
ag29
ag31
ag12
aa(lp2665
g2
ag165
ag133
ag12
aa(lp2666
g2
ag36
ag31
ag46
ag83
ag12
aa(lp2667
g2
ag17
ag12
aa(lp2668
g2
ag102
ag12
aa(lp2669
g2
ag83
ag58
ag12
aa(lp2670
g2
ag400
ag777
ag203
ag24
ag111
ag58
ag237
ag31
ag33
ag167
ag36
ag209
ag709
ag275
ag12
aa(lp2671
g2
ag131
ag301
ag46
ag83
ag12
aa(lp2672
g2
ag26
ag318
ag69
ag173
ag12
aa(lp2673
g2
ag188
ag322
ag12
aa(lp2674
g2
ag525
ag69
ag12
aa(lp2675
g2
ag131
ag65
ag29
ag38
ag113
ag12
aa(lp2676
g2
ag38
ag29
ag44
ag83
ag53
ag12
aa(lp2677
g2
ag314
ag78
ag69
ag108
ag12
aa(lp2678
g2
ag44
ag111
ag29
ag12
aa(lp2679
g2
ag129
ag65
ag29
ag17
ag12
aa(lp2680
g2
ag6
ag17
ag111
ag12
aa(lp2681
g2
ag102
ag108
ag63
ag29
ag83
ag136
ag146
ag12
aa(lp2682
g2
ag31
ag29
ag44
ag12
aa(lp2683
g2
ag63
ag71
ag12
aa(lp2684
g2
ag239
ag563
ag36
ag12
aa(lp2685
g2
ag149
ag12
aa(lp2686
g2
ag165
ag29
ag83
ag314
ag12
aa(lp2687
g2
ag129
ag36
ag182
ag12
aa(lp2688
g2
ag193
ag237
ag12
aa(lp2689
g2
ag38
ag12
aa(lp2690
g2
ag102
ag117
ag136
ag22
ag87
ag12
aa(lp2691
g2
ag38
ag63
ag173
ag290
ag12
aa(lp2692
g2
ag171
ag182
ag87
ag400
ag12
aa(lp2693
g2
ag290
ag24
ag8
ag12
aa(lp2694
g2
ag131
ag44
ag12
aa(lp2695
g2
ag177
ag314
ag46
ag81
ag12
aa(lp2696
g2
ag400
ag124
ag237
ag6
ag283
ag65
ag182
ag91
ag12
aa(lp2697
g2
ag38
ag63
ag44
ag83
ag17
ag351
ag12
aa(lp2698
g2
ag171
ag48
ag26
ag12
aa(lp2699
g2
ag44
ag136
ag12
aa(lp2700
g2
ag188
ag31
ag17
ag22
ag12
aa(lp2701
g2
ag83
ag17
ag12
aa(lp2702
g2
ag48
ag83
ag58
ag12
aa(lp2703
g2
ag102
ag152
ag46
ag12
aa(lp2704
g2
ag36
ag94
ag173
ag58
ag17
ag51
ag12
aa(lp2705
g2
ag31
ag33
ag38
ag19
ag22
ag41
ag69
ag136
ag167
ag12
aa(lp2706
g2
ag154
ag199
ag244
ag53
ag160
ag41
ag318
ag58
ag162
ag65
ag91
ag12
aa(lp2707
g2
ag31
ag33
ag12
aa(lp2708
g2
ag31
ag12
aa(lp2709
g2
ag71
ag33
ag12
aa(lp2710
g2
ag6
ag44
ag17
ag133
ag12
aa(lp2711
g2
ag44
ag81
ag12
aa(lp2712
g2
ag94
ag29
ag182
ag12
aa(lp2713
g2
ag94
ag131
ag85
ag12
aa(lp2714
g2
ag31
ag46
ag182
ag58
ag85
ag98
ag12
aa(lp2715
g2
ag182
ag67
ag12
aa(lp2716
g2
ag186
ag29
ag111
ag71
ag26
ag12
aa(lp2717
g2
ag322
ag188
ag31
ag85
ag12
aa(lp2718
g2
ag17
ag8
ag167
ag12
aa(lp2719
g2
ag131
ag133
ag63
ag108
ag12
aa(lp2720
g2
ag146
ag777
ag10
ag525
ag41
ag318
ag207
ag136
ag111
ag58
ag173
ag29
ag81
ag167
ag214
ag129
ag285
ag12
aa(lp2721
g2
ag6
ag58
ag17
ag71
ag26
ag731
ag12
aa(lp2722
g2
ag36
ag31
ag12
aa(lp2723
g2
ag17
ag106
ag162
ag12
aa(lp2724
g2
ag38
ag173
ag29
ag17
ag124
ag12
aa(lp2725
g2
ag117
ag12
aa(lp2726
g2
ag29
ag182
ag48
ag31
ag108
ag12
aa(lp2727
g2
ag129
ag141
ag318
ag12
aa(lp2728
g2
ag44
ag12
aa(lp2729
g2
ag83
ag58
ag154
ag12
aa(lp2730
g2
ag31
ag29
ag81
ag222
ag476
ag41
ag53
ag146
ag813
ag12
aa(lp2731
g2
ag152
ag73
ag835
ag203
ag207
ag111
ag29
ag209
ag12
aa(lp2732
g2
ag38
ag12
aa(lp2733
g2
ag422
ag162
ag237
ag58
ag83
ag17
ag41
ag152
ag98
ag10
ag46
ag31
ag38
ag209
ag65
ag12
aa(lp2734
g2
ag73
ag12
aa(lp2735
g2
ag31
ag33
ag44
ag12
aa(lp2736
g2
ag31
ag12
aa(lp2737
g2
ag322
ag188
ag146
ag12
aa(lp2738
g2
ag222
ag81
ag71
ag193
ag19
ag12
aa(lp2739
g2
ag38
ag12
aa(lp2740
g2
ag117
ag71
ag12
aa(lp2741
g2
ag152
ag73
ag835
ag203
ag207
ag111
ag29
ag214
ag209
ag12
aa(lp2742
g2
ag38
ag46
ag85
ag12
aa(lp2743
g2
ag38
ag33
ag31
ag29
ag48
ag65
ag17
ag113
ag12
aa(lp2744
g2
ag63
ag12
aa(lp2745
g2
ag129
ag214
ag63
ag193
ag12
aa(lp2746
g2
ag38
ag46
ag85
ag12
aa(lp2747
g2
ag38
ag12
aa(lp2748
g2
ag117
ag12
aa(lp2749
g2
ag165
ag94
ag48
ag26
ag87
ag89
ag12
aa(lp2750
g2
ag31
ag48
ag53
ag813
ag12
aa(lp2751
g2
ag38
ag152
ag154
ag12
aa(lp2752
g2
ag44
ag12
aa(lp2753
g2
ag36
ag12
aa(lp2754
g2
ag139
ag38
ag46
ag48
ag476
ag154
ag12
aa(lp2755
g2
ag165
ag131
ag17
ag12
aa(lp2756
g2
ag193
ag26
ag283
ag12
aa(lp2757
g2
ag296
ag278
ag283
ag63
ag46
ag48
ag65
ag96
ag83
ag44
ag318
ag67
ag85
ag53
ag10
ag290
ag1237
ag12
aa(lp2758
g2
ag31
ag29
ag44
ag12
aa(lp2759
g2
ag63
ag12
aa(lp2760
g2
ag71
ag33
ag12
aa(lp2761
g2
ag222
ag29
ag12
aa(lp2762
g2
ag71
ag33
ag12
aa(lp2763
g2
ag141
ag124
ag146
ag207
ag12
aa(lp2764
g2
ag26
ag12
aa(lp2765
g2
ag44
ag12
aa(lp2766
g2
ag29
ag48
ag26
ag525
ag290
ag813
ag98
ag199
ag709
ag12
aa(lp2767
g2
ag63
ag73
ag12
aa(lp2768
g2
ag63
ag73
ag12
aa(lp2769
g2
ag73
ag160
ag237
ag12
aa(lp2770
g2
ag296
ag278
ag283
ag63
ag46
ag48
ag65
ag96
ag83
ag44
ag318
ag67
ag85
ag53
ag316
ag290
ag10
ag1237
ag12
aa(lp2771
g2
ag296
ag278
ag283
ag63
ag46
ag48
ag65
ag96
ag83
ag44
ag318
ag67
ag85
ag53
ag316
ag290
ag10
ag1237
ag12
aa(lp2772
g2
ag296
ag131
ag17
ag12
aa(lp2773
g2
ag73
ag160
ag237
ag12
aa(lp2774
g2
ag296
ag38
ag31
ag46
ag182
ag60
ag12
aa(lp2775
g2
ag244
ag41
ag111
ag12
aa(lp2776
g2
ag94
ag182
ag149
ag12
aa(lp2777
g2
ag15
ag171
ag29
ag44
ag85
ag12
aa(lp2778
g2
ag322
ag188
ag31
ag58
ag12
aa(lp2779
g2
ag63
ag193
ag12
aa(lp2780
g2
ag117
ag12
aa(lp2781
g2
ag563
ag322
ag188
ag17
ag53
ag146
ag12
aa(lp2782
g2
ag44
ag12
aa(lp2783
g2
ag98
ag10
ag203
ag201
ag199
ag160
ag69
ag71
ag117
ag108
ag173
ag29
ag48
ag133
ag94
ag129
ag12
aa(lp2784
g2
ag182
ag108
ag12
aa(lp2785
g2
ag422
ag12
aa(lp2786
g2
ag63
ag182
ag12
aa(lp2787
g2
ag182
ag152
ag12
aa(lp2788
g2
ag83
ag58
ag154
ag12
aa.